ARM GAS  C:\Users\casey\AppData\Local\Temp\ccLiVS15.s 			page 1


   1              		.syntax unified
   2              		.cpu cortex-m0
   3              		.fpu softvfp
   4              		.eabi_attribute 20, 1
   5              		.eabi_attribute 21, 1
   6              		.eabi_attribute 23, 3
   7              		.eabi_attribute 24, 1
   8              		.eabi_attribute 25, 1
   9              		.eabi_attribute 26, 1
  10              		.eabi_attribute 30, 1
  11              		.eabi_attribute 34, 0
  12              		.eabi_attribute 18, 4
  13              		.thumb
  14              		.syntax unified
  15              		.file	"cyfitter_cfg.c"
  16              		.text
  17              	.Ltext0:
  18              		.cfi_sections	.debug_frame
  19              		.section	.text.cfg_write_bytes32,"ax",%progbits
  20              		.align	2
  21              		.code	16
  22              		.thumb_func
  23              		.type	cfg_write_bytes32, %function
  24              	cfg_write_bytes32:
  25              	.LFB4:
  26              		.file 1 "Generated_Source\\PSoC4\\cyfitter_cfg.c"
   1:Generated_Source\PSoC4/cyfitter_cfg.c **** 
   2:Generated_Source\PSoC4/cyfitter_cfg.c **** /*******************************************************************************
   3:Generated_Source\PSoC4/cyfitter_cfg.c **** * File Name: cyfitter_cfg.c
   4:Generated_Source\PSoC4/cyfitter_cfg.c **** * 
   5:Generated_Source\PSoC4/cyfitter_cfg.c **** * PSoC Creator  4.4
   6:Generated_Source\PSoC4/cyfitter_cfg.c **** *
   7:Generated_Source\PSoC4/cyfitter_cfg.c **** * Description:
   8:Generated_Source\PSoC4/cyfitter_cfg.c **** * This file contains device initialization code.
   9:Generated_Source\PSoC4/cyfitter_cfg.c **** * Except for the user defined sections in CyClockStartupError(), this file should not be modified.
  10:Generated_Source\PSoC4/cyfitter_cfg.c **** * This file is automatically generated by PSoC Creator.
  11:Generated_Source\PSoC4/cyfitter_cfg.c **** *
  12:Generated_Source\PSoC4/cyfitter_cfg.c **** ********************************************************************************
  13:Generated_Source\PSoC4/cyfitter_cfg.c **** * Copyright (c) 2007-2020 Cypress Semiconductor.  All rights reserved.
  14:Generated_Source\PSoC4/cyfitter_cfg.c **** * You may use this file only in accordance with the license, terms, conditions, 
  15:Generated_Source\PSoC4/cyfitter_cfg.c **** * disclaimers, and limitations in the end user license agreement accompanying 
  16:Generated_Source\PSoC4/cyfitter_cfg.c **** * the software package with which this file was provided.
  17:Generated_Source\PSoC4/cyfitter_cfg.c **** ********************************************************************************/
  18:Generated_Source\PSoC4/cyfitter_cfg.c **** 
  19:Generated_Source\PSoC4/cyfitter_cfg.c **** #include <string.h>
  20:Generated_Source\PSoC4/cyfitter_cfg.c **** #include "cytypes.h"
  21:Generated_Source\PSoC4/cyfitter_cfg.c **** #include "cydevice_trm.h"
  22:Generated_Source\PSoC4/cyfitter_cfg.c **** #include "cyfitter.h"
  23:Generated_Source\PSoC4/cyfitter_cfg.c **** #include "CyLib.h"
  24:Generated_Source\PSoC4/cyfitter_cfg.c **** #include "CyLFClk.h"
  25:Generated_Source\PSoC4/cyfitter_cfg.c **** #include "cyfitter_cfg.h"
  26:Generated_Source\PSoC4/cyfitter_cfg.c **** #include "cyapicallbacks.h"
  27:Generated_Source\PSoC4/cyfitter_cfg.c **** 
  28:Generated_Source\PSoC4/cyfitter_cfg.c **** 
  29:Generated_Source\PSoC4/cyfitter_cfg.c **** #if defined(__GNUC__) || defined(__ARMCC_VERSION)
  30:Generated_Source\PSoC4/cyfitter_cfg.c ****     #define CYPACKED 
  31:Generated_Source\PSoC4/cyfitter_cfg.c ****     #define CYPACKED_ATTR __attribute__ ((packed))
ARM GAS  C:\Users\casey\AppData\Local\Temp\ccLiVS15.s 			page 2


  32:Generated_Source\PSoC4/cyfitter_cfg.c ****     #define CYALIGNED __attribute__ ((aligned))
  33:Generated_Source\PSoC4/cyfitter_cfg.c ****     #define CY_CFG_UNUSED __attribute__ ((unused))
  34:Generated_Source\PSoC4/cyfitter_cfg.c ****     #ifndef CY_CFG_SECTION
  35:Generated_Source\PSoC4/cyfitter_cfg.c ****         #define CY_CFG_SECTION __attribute__ ((section(".psocinit")))
  36:Generated_Source\PSoC4/cyfitter_cfg.c ****     #endif
  37:Generated_Source\PSoC4/cyfitter_cfg.c ****     
  38:Generated_Source\PSoC4/cyfitter_cfg.c ****     #if defined(__ARMCC_VERSION)
  39:Generated_Source\PSoC4/cyfitter_cfg.c ****         #define CY_CFG_MEMORY_BARRIER() __memory_changed()
  40:Generated_Source\PSoC4/cyfitter_cfg.c ****     #else
  41:Generated_Source\PSoC4/cyfitter_cfg.c ****         #define CY_CFG_MEMORY_BARRIER() __sync_synchronize()
  42:Generated_Source\PSoC4/cyfitter_cfg.c ****     #endif
  43:Generated_Source\PSoC4/cyfitter_cfg.c ****     
  44:Generated_Source\PSoC4/cyfitter_cfg.c **** #elif defined(__ICCARM__)
  45:Generated_Source\PSoC4/cyfitter_cfg.c ****     #include <intrinsics.h>
  46:Generated_Source\PSoC4/cyfitter_cfg.c **** 
  47:Generated_Source\PSoC4/cyfitter_cfg.c ****     #define CYPACKED __packed
  48:Generated_Source\PSoC4/cyfitter_cfg.c ****     #define CYPACKED_ATTR 
  49:Generated_Source\PSoC4/cyfitter_cfg.c ****     #define CYALIGNED _Pragma("data_alignment=4")
  50:Generated_Source\PSoC4/cyfitter_cfg.c ****     #define CY_CFG_UNUSED _Pragma("diag_suppress=Pe177")
  51:Generated_Source\PSoC4/cyfitter_cfg.c ****     #define CY_CFG_SECTION _Pragma("location=\".psocinit\"")
  52:Generated_Source\PSoC4/cyfitter_cfg.c ****     
  53:Generated_Source\PSoC4/cyfitter_cfg.c ****     #define CY_CFG_MEMORY_BARRIER() __DMB()
  54:Generated_Source\PSoC4/cyfitter_cfg.c ****     
  55:Generated_Source\PSoC4/cyfitter_cfg.c **** #else
  56:Generated_Source\PSoC4/cyfitter_cfg.c ****     #error Unsupported toolchain
  57:Generated_Source\PSoC4/cyfitter_cfg.c **** #endif
  58:Generated_Source\PSoC4/cyfitter_cfg.c **** 
  59:Generated_Source\PSoC4/cyfitter_cfg.c **** #ifndef CYCODE
  60:Generated_Source\PSoC4/cyfitter_cfg.c ****     #define CYCODE
  61:Generated_Source\PSoC4/cyfitter_cfg.c **** #endif
  62:Generated_Source\PSoC4/cyfitter_cfg.c **** #ifndef CYDATA
  63:Generated_Source\PSoC4/cyfitter_cfg.c ****     #define CYDATA
  64:Generated_Source\PSoC4/cyfitter_cfg.c **** #endif
  65:Generated_Source\PSoC4/cyfitter_cfg.c **** #ifndef CYFAR
  66:Generated_Source\PSoC4/cyfitter_cfg.c ****     #define CYFAR
  67:Generated_Source\PSoC4/cyfitter_cfg.c **** #endif
  68:Generated_Source\PSoC4/cyfitter_cfg.c **** #ifndef CYXDATA
  69:Generated_Source\PSoC4/cyfitter_cfg.c ****     #define CYXDATA
  70:Generated_Source\PSoC4/cyfitter_cfg.c **** #endif
  71:Generated_Source\PSoC4/cyfitter_cfg.c **** 
  72:Generated_Source\PSoC4/cyfitter_cfg.c **** 
  73:Generated_Source\PSoC4/cyfitter_cfg.c **** CY_CFG_UNUSED
  74:Generated_Source\PSoC4/cyfitter_cfg.c **** static void CYMEMZERO(void *s, size_t n);
  75:Generated_Source\PSoC4/cyfitter_cfg.c **** CY_CFG_UNUSED
  76:Generated_Source\PSoC4/cyfitter_cfg.c **** static void CYMEMZERO(void *s, size_t n)
  77:Generated_Source\PSoC4/cyfitter_cfg.c **** {
  78:Generated_Source\PSoC4/cyfitter_cfg.c **** 	(void)memset(s, 0, n);
  79:Generated_Source\PSoC4/cyfitter_cfg.c **** }
  80:Generated_Source\PSoC4/cyfitter_cfg.c **** CY_CFG_UNUSED
  81:Generated_Source\PSoC4/cyfitter_cfg.c **** static void CYCONFIGCPY(void *dest, const void *src, size_t n);
  82:Generated_Source\PSoC4/cyfitter_cfg.c **** CY_CFG_UNUSED
  83:Generated_Source\PSoC4/cyfitter_cfg.c **** static void CYCONFIGCPY(void *dest, const void *src, size_t n)
  84:Generated_Source\PSoC4/cyfitter_cfg.c **** {
  85:Generated_Source\PSoC4/cyfitter_cfg.c **** 	(void)memcpy(dest, src, n);
  86:Generated_Source\PSoC4/cyfitter_cfg.c **** }
  87:Generated_Source\PSoC4/cyfitter_cfg.c **** CY_CFG_UNUSED
  88:Generated_Source\PSoC4/cyfitter_cfg.c **** static void CYCONFIGCPYCODE(void *dest, const void *src, size_t n);
ARM GAS  C:\Users\casey\AppData\Local\Temp\ccLiVS15.s 			page 3


  89:Generated_Source\PSoC4/cyfitter_cfg.c **** CY_CFG_UNUSED
  90:Generated_Source\PSoC4/cyfitter_cfg.c **** static void CYCONFIGCPYCODE(void *dest, const void *src, size_t n)
  91:Generated_Source\PSoC4/cyfitter_cfg.c **** {
  92:Generated_Source\PSoC4/cyfitter_cfg.c **** 	(void)memcpy(dest, src, n);
  93:Generated_Source\PSoC4/cyfitter_cfg.c **** }
  94:Generated_Source\PSoC4/cyfitter_cfg.c **** 
  95:Generated_Source\PSoC4/cyfitter_cfg.c **** 
  96:Generated_Source\PSoC4/cyfitter_cfg.c **** 
  97:Generated_Source\PSoC4/cyfitter_cfg.c **** 
  98:Generated_Source\PSoC4/cyfitter_cfg.c **** /* Clock startup error codes                                                   */
  99:Generated_Source\PSoC4/cyfitter_cfg.c **** #define CYCLOCKSTART_NO_ERROR    0u
 100:Generated_Source\PSoC4/cyfitter_cfg.c **** #define CYCLOCKSTART_XTAL_ERROR  1u
 101:Generated_Source\PSoC4/cyfitter_cfg.c **** #define CYCLOCKSTART_32KHZ_ERROR 2u
 102:Generated_Source\PSoC4/cyfitter_cfg.c **** #define CYCLOCKSTART_PLL_ERROR   3u
 103:Generated_Source\PSoC4/cyfitter_cfg.c **** #define CYCLOCKSTART_FLL_ERROR   4u
 104:Generated_Source\PSoC4/cyfitter_cfg.c **** #define CYCLOCKSTART_WCO_ERROR   5u
 105:Generated_Source\PSoC4/cyfitter_cfg.c **** 
 106:Generated_Source\PSoC4/cyfitter_cfg.c **** 
 107:Generated_Source\PSoC4/cyfitter_cfg.c **** #ifdef CY_NEED_CYCLOCKSTARTUPERROR
 108:Generated_Source\PSoC4/cyfitter_cfg.c **** /*******************************************************************************
 109:Generated_Source\PSoC4/cyfitter_cfg.c **** * Function Name: CyClockStartupError
 110:Generated_Source\PSoC4/cyfitter_cfg.c **** ********************************************************************************
 111:Generated_Source\PSoC4/cyfitter_cfg.c **** * Summary:
 112:Generated_Source\PSoC4/cyfitter_cfg.c **** *  If an error is encountered during clock configuration (crystal startup error,
 113:Generated_Source\PSoC4/cyfitter_cfg.c **** *  PLL lock error, etc.), the system will end up here.  Unless reimplemented by
 114:Generated_Source\PSoC4/cyfitter_cfg.c **** *  the customer, this function will stop in an infinite loop.
 115:Generated_Source\PSoC4/cyfitter_cfg.c **** *
 116:Generated_Source\PSoC4/cyfitter_cfg.c **** * Parameters:
 117:Generated_Source\PSoC4/cyfitter_cfg.c **** *   void
 118:Generated_Source\PSoC4/cyfitter_cfg.c **** *
 119:Generated_Source\PSoC4/cyfitter_cfg.c **** * Return:
 120:Generated_Source\PSoC4/cyfitter_cfg.c **** *   void
 121:Generated_Source\PSoC4/cyfitter_cfg.c **** *
 122:Generated_Source\PSoC4/cyfitter_cfg.c **** *******************************************************************************/
 123:Generated_Source\PSoC4/cyfitter_cfg.c **** CY_CFG_UNUSED
 124:Generated_Source\PSoC4/cyfitter_cfg.c **** static void CyClockStartupError(uint8 errorCode);
 125:Generated_Source\PSoC4/cyfitter_cfg.c **** CY_CFG_UNUSED
 126:Generated_Source\PSoC4/cyfitter_cfg.c **** static void CyClockStartupError(uint8 errorCode)
 127:Generated_Source\PSoC4/cyfitter_cfg.c **** {
 128:Generated_Source\PSoC4/cyfitter_cfg.c ****     /* To remove the compiler warning if errorCode not used.                */
 129:Generated_Source\PSoC4/cyfitter_cfg.c ****     errorCode = errorCode;
 130:Generated_Source\PSoC4/cyfitter_cfg.c **** 
 131:Generated_Source\PSoC4/cyfitter_cfg.c ****     /* If we have a clock startup error (bad MHz crystal, PLL lock, etc.),  */
 132:Generated_Source\PSoC4/cyfitter_cfg.c ****     /* we will end up here to allow the customer to implement something to  */
 133:Generated_Source\PSoC4/cyfitter_cfg.c ****     /* deal with the clock condition.                                       */
 134:Generated_Source\PSoC4/cyfitter_cfg.c **** 
 135:Generated_Source\PSoC4/cyfitter_cfg.c **** #ifdef CY_CFG_CLOCK_STARTUP_ERROR_CALLBACK
 136:Generated_Source\PSoC4/cyfitter_cfg.c ****     CY_CFG_Clock_Startup_ErrorCallback();
 137:Generated_Source\PSoC4/cyfitter_cfg.c **** #else
 138:Generated_Source\PSoC4/cyfitter_cfg.c ****     /*  If not using CY_CFG_CLOCK_STARTUP_ERROR_CALLBACK, place your clock startup code here. */
 139:Generated_Source\PSoC4/cyfitter_cfg.c ****     /* `#START CyClockStartupError` */
 140:Generated_Source\PSoC4/cyfitter_cfg.c **** 
 141:Generated_Source\PSoC4/cyfitter_cfg.c **** 
 142:Generated_Source\PSoC4/cyfitter_cfg.c **** 
 143:Generated_Source\PSoC4/cyfitter_cfg.c ****     /* `#END` */
 144:Generated_Source\PSoC4/cyfitter_cfg.c **** 
 145:Generated_Source\PSoC4/cyfitter_cfg.c ****     while(1) {}
ARM GAS  C:\Users\casey\AppData\Local\Temp\ccLiVS15.s 			page 4


 146:Generated_Source\PSoC4/cyfitter_cfg.c **** #endif /* CY_CFG_CLOCK_STARTUP_ERROR_CALLBACK */
 147:Generated_Source\PSoC4/cyfitter_cfg.c **** }
 148:Generated_Source\PSoC4/cyfitter_cfg.c **** #endif
 149:Generated_Source\PSoC4/cyfitter_cfg.c **** 
 150:Generated_Source\PSoC4/cyfitter_cfg.c **** #define CY_CFG_BASE_ADDR_COUNT 14u
 151:Generated_Source\PSoC4/cyfitter_cfg.c **** CYPACKED typedef struct
 152:Generated_Source\PSoC4/cyfitter_cfg.c **** {
 153:Generated_Source\PSoC4/cyfitter_cfg.c **** 	uint8 offset;
 154:Generated_Source\PSoC4/cyfitter_cfg.c **** 	uint8 value;
 155:Generated_Source\PSoC4/cyfitter_cfg.c **** } CYPACKED_ATTR cy_cfg_addrvalue_t;
 156:Generated_Source\PSoC4/cyfitter_cfg.c **** 
 157:Generated_Source\PSoC4/cyfitter_cfg.c **** 
 158:Generated_Source\PSoC4/cyfitter_cfg.c **** 
 159:Generated_Source\PSoC4/cyfitter_cfg.c **** /*******************************************************************************
 160:Generated_Source\PSoC4/cyfitter_cfg.c **** * Function Name: cfg_write_bytes32
 161:Generated_Source\PSoC4/cyfitter_cfg.c **** ********************************************************************************
 162:Generated_Source\PSoC4/cyfitter_cfg.c **** * Summary:
 163:Generated_Source\PSoC4/cyfitter_cfg.c **** *  This function is used for setting up the chip configuration areas that
 164:Generated_Source\PSoC4/cyfitter_cfg.c **** *  contain relatively sparse data.
 165:Generated_Source\PSoC4/cyfitter_cfg.c **** *
 166:Generated_Source\PSoC4/cyfitter_cfg.c **** * Parameters:
 167:Generated_Source\PSoC4/cyfitter_cfg.c **** *   void
 168:Generated_Source\PSoC4/cyfitter_cfg.c **** *
 169:Generated_Source\PSoC4/cyfitter_cfg.c **** * Return:
 170:Generated_Source\PSoC4/cyfitter_cfg.c **** *   void
 171:Generated_Source\PSoC4/cyfitter_cfg.c **** *
 172:Generated_Source\PSoC4/cyfitter_cfg.c **** *******************************************************************************/
 173:Generated_Source\PSoC4/cyfitter_cfg.c **** static void cfg_write_bytes32(const uint32 addr_table[], const cy_cfg_addrvalue_t data_table[]);
 174:Generated_Source\PSoC4/cyfitter_cfg.c **** static void cfg_write_bytes32(const uint32 addr_table[], const cy_cfg_addrvalue_t data_table[])
 175:Generated_Source\PSoC4/cyfitter_cfg.c **** {
  27              		.loc 1 175 0
  28              		.cfi_startproc
  29              		@ args = 0, pretend = 0, frame = 0
  30              		@ frame_needed = 0, uses_anonymous_args = 0
  31              	.LVL0:
  32 0000 F0B5     		push	{r4, r5, r6, r7, lr}
  33              		.cfi_def_cfa_offset 20
  34              		.cfi_offset 4, -20
  35              		.cfi_offset 5, -16
  36              		.cfi_offset 6, -12
  37              		.cfi_offset 7, -8
  38              		.cfi_offset 14, -4
  39              	.LVL1:
 176:Generated_Source\PSoC4/cyfitter_cfg.c **** 	/* For 32-bit little-endian architectures */
 177:Generated_Source\PSoC4/cyfitter_cfg.c **** 	uint32 i, j = 0u;
  40              		.loc 1 177 0
  41 0002 0025     		movs	r5, #0
 178:Generated_Source\PSoC4/cyfitter_cfg.c **** 	for (i = 0u; i < CY_CFG_BASE_ADDR_COUNT; i++)
  42              		.loc 1 178 0
  43 0004 0027     		movs	r7, #0
  44 0006 11E0     		b	.L2
  45              	.LVL2:
  46              	.L5:
  47              	.LBB2:
 179:Generated_Source\PSoC4/cyfitter_cfg.c **** 	{
 180:Generated_Source\PSoC4/cyfitter_cfg.c **** 		uint32 baseAddr = addr_table[i];
  48              		.loc 1 180 0
ARM GAS  C:\Users\casey\AppData\Local\Temp\ccLiVS15.s 			page 5


  49 0008 BB00     		lsls	r3, r7, #2
  50 000a C658     		ldr	r6, [r0, r3]
  51              	.LVL3:
 181:Generated_Source\PSoC4/cyfitter_cfg.c **** 		uint8 count = (uint8)baseAddr;
  52              		.loc 1 181 0
  53 000c F3B2     		uxtb	r3, r6
  54              	.LVL4:
 182:Generated_Source\PSoC4/cyfitter_cfg.c **** 		baseAddr &= 0xFFFFFF00u;
  55              		.loc 1 182 0
  56 000e FF22     		movs	r2, #255
  57 0010 9643     		bics	r6, r2
  58              	.LVL5:
 183:Generated_Source\PSoC4/cyfitter_cfg.c **** 		while (count != 0u)
  59              		.loc 1 183 0
  60 0012 08E0     		b	.L3
  61              	.L4:
 184:Generated_Source\PSoC4/cyfitter_cfg.c **** 		{
 185:Generated_Source\PSoC4/cyfitter_cfg.c **** 			CY_SET_REG8((void *)(baseAddr + data_table[j].offset), data_table[j].value);
  62              		.loc 1 185 0
  63 0014 6A00     		lsls	r2, r5, #1
  64 0016 8A18     		adds	r2, r1, r2
  65 0018 1478     		ldrb	r4, [r2]
  66 001a A419     		adds	r4, r4, r6
  67 001c 5278     		ldrb	r2, [r2, #1]
  68 001e 2270     		strb	r2, [r4]
 186:Generated_Source\PSoC4/cyfitter_cfg.c **** 			j++;
  69              		.loc 1 186 0
  70 0020 0135     		adds	r5, r5, #1
  71              	.LVL6:
 187:Generated_Source\PSoC4/cyfitter_cfg.c **** 			count--;
  72              		.loc 1 187 0
  73 0022 013B     		subs	r3, r3, #1
  74              	.LVL7:
  75 0024 DBB2     		uxtb	r3, r3
  76              	.LVL8:
  77              	.L3:
 183:Generated_Source\PSoC4/cyfitter_cfg.c **** 		{
  78              		.loc 1 183 0
  79 0026 002B     		cmp	r3, #0
  80 0028 F4D1     		bne	.L4
  81              	.LBE2:
 178:Generated_Source\PSoC4/cyfitter_cfg.c **** 	{
  82              		.loc 1 178 0 discriminator 2
  83 002a 0137     		adds	r7, r7, #1
  84              	.LVL9:
  85              	.L2:
 178:Generated_Source\PSoC4/cyfitter_cfg.c **** 	{
  86              		.loc 1 178 0 is_stmt 0 discriminator 1
  87 002c 0D2F     		cmp	r7, #13
  88 002e EBD9     		bls	.L5
 188:Generated_Source\PSoC4/cyfitter_cfg.c **** 		}
 189:Generated_Source\PSoC4/cyfitter_cfg.c **** 	}
 190:Generated_Source\PSoC4/cyfitter_cfg.c **** }
  89              		.loc 1 190 0 is_stmt 1
  90              		@ sp needed
  91              	.LVL10:
  92              	.LVL11:
ARM GAS  C:\Users\casey\AppData\Local\Temp\ccLiVS15.s 			page 6


  93 0030 F0BD     		pop	{r4, r5, r6, r7, pc}
  94              		.cfi_endproc
  95              	.LFE4:
  96              		.size	cfg_write_bytes32, .-cfg_write_bytes32
  97 0032 C046     		.section	.text.AnalogSetDefault,"ax",%progbits
  98              		.align	2
  99              		.code	16
 100              		.thumb_func
 101              		.type	AnalogSetDefault, %function
 102              	AnalogSetDefault:
 103              	.LFB6:
 191:Generated_Source\PSoC4/cyfitter_cfg.c **** 
 192:Generated_Source\PSoC4/cyfitter_cfg.c **** 
 193:Generated_Source\PSoC4/cyfitter_cfg.c **** /*******************************************************************************
 194:Generated_Source\PSoC4/cyfitter_cfg.c **** * Function Name: ClockSetup
 195:Generated_Source\PSoC4/cyfitter_cfg.c **** ********************************************************************************
 196:Generated_Source\PSoC4/cyfitter_cfg.c **** *
 197:Generated_Source\PSoC4/cyfitter_cfg.c **** * Summary:
 198:Generated_Source\PSoC4/cyfitter_cfg.c **** *   Performs the initialization of all of the clocks in the device based on the
 199:Generated_Source\PSoC4/cyfitter_cfg.c **** *   settings in the Clock tab of the DWR.  This includes enabling the requested
 200:Generated_Source\PSoC4/cyfitter_cfg.c **** *   clocks and setting the necessary dividers to produce the desired frequency. 
 201:Generated_Source\PSoC4/cyfitter_cfg.c **** *
 202:Generated_Source\PSoC4/cyfitter_cfg.c **** * Parameters:
 203:Generated_Source\PSoC4/cyfitter_cfg.c **** *   void
 204:Generated_Source\PSoC4/cyfitter_cfg.c **** *
 205:Generated_Source\PSoC4/cyfitter_cfg.c **** * Return:
 206:Generated_Source\PSoC4/cyfitter_cfg.c **** *   void
 207:Generated_Source\PSoC4/cyfitter_cfg.c **** *
 208:Generated_Source\PSoC4/cyfitter_cfg.c **** *******************************************************************************/
 209:Generated_Source\PSoC4/cyfitter_cfg.c **** static void ClockSetup(void);
 210:Generated_Source\PSoC4/cyfitter_cfg.c **** CY_CFG_SECTION
 211:Generated_Source\PSoC4/cyfitter_cfg.c **** static void ClockSetup(void)
 212:Generated_Source\PSoC4/cyfitter_cfg.c **** {
 213:Generated_Source\PSoC4/cyfitter_cfg.c **** 
 214:Generated_Source\PSoC4/cyfitter_cfg.c **** 	/* Set Flash Cycles based on max possible frequency in case a glitch occurs during ClockSetup(). *
 215:Generated_Source\PSoC4/cyfitter_cfg.c **** 	CY_SET_REG32((void CYXDATA *)(CYREG_CPUSS_FLASH_CTL), (0x0012u));
 216:Generated_Source\PSoC4/cyfitter_cfg.c **** 
 217:Generated_Source\PSoC4/cyfitter_cfg.c **** 	/* Start the WCO */
 218:Generated_Source\PSoC4/cyfitter_cfg.c **** 	CySysClkWcoStart();
 219:Generated_Source\PSoC4/cyfitter_cfg.c **** 	CyDelayCycles(12000000u); /* WCO may take up to 500ms to start */
 220:Generated_Source\PSoC4/cyfitter_cfg.c **** 
 221:Generated_Source\PSoC4/cyfitter_cfg.c **** 	/* Setup and trim IMO based on desired frequency. */
 222:Generated_Source\PSoC4/cyfitter_cfg.c **** 	CySysClkWriteImoFreq(48u);
 223:Generated_Source\PSoC4/cyfitter_cfg.c **** 	/* CYDEV_CLK_ILO_CONFIG Starting address: CYDEV_CLK_ILO_CONFIG */
 224:Generated_Source\PSoC4/cyfitter_cfg.c **** 	CY_SET_REG32((void *)(CYREG_CLK_ILO_CONFIG), 0x80000006u);
 225:Generated_Source\PSoC4/cyfitter_cfg.c **** 
 226:Generated_Source\PSoC4/cyfitter_cfg.c **** 	/* CYDEV_WDT_CONFIG Starting address: CYDEV_WDT_CONFIG */
 227:Generated_Source\PSoC4/cyfitter_cfg.c **** 	CY_SET_REG32((void *)(CYREG_WDT_CONFIG), 0x40000000u);
 228:Generated_Source\PSoC4/cyfitter_cfg.c **** 
 229:Generated_Source\PSoC4/cyfitter_cfg.c **** 
 230:Generated_Source\PSoC4/cyfitter_cfg.c **** 	/* Setup phase aligned clocks */
 231:Generated_Source\PSoC4/cyfitter_cfg.c **** 	CY_SET_REG32((void *)CYREG_PERI_DIV_16_CTL0, 0x00000000u);
 232:Generated_Source\PSoC4/cyfitter_cfg.c **** 	CY_SET_REG32((void *)CYREG_PERI_DIV_CMD, 0x8000FF40u);
 233:Generated_Source\PSoC4/cyfitter_cfg.c **** 	CY_SET_REG32((void *)CYREG_PERI_DIV_16_CTL1, 0x00001C00u);
 234:Generated_Source\PSoC4/cyfitter_cfg.c **** 	CY_SET_REG32((void *)CYREG_PERI_DIV_CMD, 0x8000FF41u);
 235:Generated_Source\PSoC4/cyfitter_cfg.c **** 
 236:Generated_Source\PSoC4/cyfitter_cfg.c **** 	/* CYDEV_CLK_IMO_CONFIG Starting address: CYDEV_CLK_IMO_CONFIG */
ARM GAS  C:\Users\casey\AppData\Local\Temp\ccLiVS15.s 			page 7


 237:Generated_Source\PSoC4/cyfitter_cfg.c **** 	CY_SET_REG32((void *)(CYREG_CLK_IMO_CONFIG), 0x80000000u);
 238:Generated_Source\PSoC4/cyfitter_cfg.c **** 
 239:Generated_Source\PSoC4/cyfitter_cfg.c **** 	/* CYDEV_CLK_SELECT Starting address: CYDEV_CLK_SELECT */
 240:Generated_Source\PSoC4/cyfitter_cfg.c **** 	CY_SET_REG32((void *)(CYREG_CLK_SELECT), 0x00040249u);
 241:Generated_Source\PSoC4/cyfitter_cfg.c **** 
 242:Generated_Source\PSoC4/cyfitter_cfg.c **** 	/* CYDEV_PERI_PCLK_CTL5 Starting address: CYDEV_PERI_PCLK_CTL5 */
 243:Generated_Source\PSoC4/cyfitter_cfg.c **** 	CY_SET_REG32((void *)(CYREG_PERI_PCLK_CTL5), 0x00000041u);
 244:Generated_Source\PSoC4/cyfitter_cfg.c **** 
 245:Generated_Source\PSoC4/cyfitter_cfg.c **** 	(void)CyIntSetVector(8u, &CySysWdtIsr);
 246:Generated_Source\PSoC4/cyfitter_cfg.c **** 	CyIntEnable(8u);
 247:Generated_Source\PSoC4/cyfitter_cfg.c **** 	CY_SET_REG32((void *)(CYREG_WDT_CONFIG), 0x40000000u);
 248:Generated_Source\PSoC4/cyfitter_cfg.c **** }
 249:Generated_Source\PSoC4/cyfitter_cfg.c **** 
 250:Generated_Source\PSoC4/cyfitter_cfg.c **** 
 251:Generated_Source\PSoC4/cyfitter_cfg.c **** /* Analog API Functions */
 252:Generated_Source\PSoC4/cyfitter_cfg.c **** 
 253:Generated_Source\PSoC4/cyfitter_cfg.c **** 
 254:Generated_Source\PSoC4/cyfitter_cfg.c **** /*******************************************************************************
 255:Generated_Source\PSoC4/cyfitter_cfg.c **** * Function Name: AnalogSetDefault
 256:Generated_Source\PSoC4/cyfitter_cfg.c **** ********************************************************************************
 257:Generated_Source\PSoC4/cyfitter_cfg.c **** *
 258:Generated_Source\PSoC4/cyfitter_cfg.c **** * Summary:
 259:Generated_Source\PSoC4/cyfitter_cfg.c **** *  Sets up the analog portions of the chip to default values based on chip
 260:Generated_Source\PSoC4/cyfitter_cfg.c **** *  configuration options from the project.
 261:Generated_Source\PSoC4/cyfitter_cfg.c **** *
 262:Generated_Source\PSoC4/cyfitter_cfg.c **** * Parameters:
 263:Generated_Source\PSoC4/cyfitter_cfg.c **** *  void
 264:Generated_Source\PSoC4/cyfitter_cfg.c **** *
 265:Generated_Source\PSoC4/cyfitter_cfg.c **** * Return:
 266:Generated_Source\PSoC4/cyfitter_cfg.c **** *  void
 267:Generated_Source\PSoC4/cyfitter_cfg.c **** *
 268:Generated_Source\PSoC4/cyfitter_cfg.c **** *******************************************************************************/
 269:Generated_Source\PSoC4/cyfitter_cfg.c **** static void AnalogSetDefault(void);
 270:Generated_Source\PSoC4/cyfitter_cfg.c **** static void AnalogSetDefault(void)
 271:Generated_Source\PSoC4/cyfitter_cfg.c **** {
 104              		.loc 1 271 0
 105              		.cfi_startproc
 106              		@ args = 0, pretend = 0, frame = 0
 107              		@ frame_needed = 0, uses_anonymous_args = 0
 108              		@ link register save eliminated.
 272:Generated_Source\PSoC4/cyfitter_cfg.c **** 	CY_SET_XTND_REG32((void CYFAR *)CYREG_CTBM0_DFT_CTRL, 0x00000003u);
 109              		.loc 1 272 0
 110 0000 0323     		movs	r3, #3
 111 0002 044A     		ldr	r2, .L7
 112 0004 1360     		str	r3, [r2]
 273:Generated_Source\PSoC4/cyfitter_cfg.c **** 	CY_SET_XTND_REG32((void CYFAR *)CYREG_CTBM1_DFT_CTRL, 0x00000003u);
 113              		.loc 1 273 0
 114 0006 044A     		ldr	r2, .L7+4
 115 0008 1360     		str	r3, [r2]
 274:Generated_Source\PSoC4/cyfitter_cfg.c **** 	CY_SET_XTND_REG32((void CYFAR *)CYREG_PASS_DSAB_DSAB_CTRL, 0x00000000u);
 116              		.loc 1 274 0
 117 000a 0022     		movs	r2, #0
 118 000c 034B     		ldr	r3, .L7+8
 119 000e 1A60     		str	r2, [r3]
 275:Generated_Source\PSoC4/cyfitter_cfg.c **** }
 120              		.loc 1 275 0
 121              		@ sp needed
ARM GAS  C:\Users\casey\AppData\Local\Temp\ccLiVS15.s 			page 8


 122 0010 7047     		bx	lr
 123              	.L8:
 124 0012 C046     		.align	2
 125              	.L7:
 126 0014 30003040 		.word	1076887600
 127 0018 30003140 		.word	1076953136
 128 001c 000E3F40 		.word	1077874176
 129              		.cfi_endproc
 130              	.LFE6:
 131              		.size	AnalogSetDefault, .-AnalogSetDefault
 132              		.section	.text.CYMEMZERO,"ax",%progbits
 133              		.align	2
 134              		.code	16
 135              		.thumb_func
 136              		.type	CYMEMZERO, %function
 137              	CYMEMZERO:
 138              	.LFB1:
  77:Generated_Source\PSoC4/cyfitter_cfg.c **** 	(void)memset(s, 0, n);
 139              		.loc 1 77 0
 140              		.cfi_startproc
 141              		@ args = 0, pretend = 0, frame = 0
 142              		@ frame_needed = 0, uses_anonymous_args = 0
 143              	.LVL12:
 144 0000 10B5     		push	{r4, lr}
 145              		.cfi_def_cfa_offset 8
 146              		.cfi_offset 4, -8
 147              		.cfi_offset 14, -4
 148 0002 0A00     		movs	r2, r1
  78:Generated_Source\PSoC4/cyfitter_cfg.c **** }
 149              		.loc 1 78 0
 150 0004 0021     		movs	r1, #0
 151              	.LVL13:
 152 0006 FFF7FEFF 		bl	memset
 153              	.LVL14:
  79:Generated_Source\PSoC4/cyfitter_cfg.c **** CY_CFG_UNUSED
 154              		.loc 1 79 0
 155              		@ sp needed
 156 000a 10BD     		pop	{r4, pc}
 157              		.cfi_endproc
 158              	.LFE1:
 159              		.size	CYMEMZERO, .-CYMEMZERO
 160              		.section	.psocinit,"ax",%progbits
 161              		.align	2
 162              		.code	16
 163              		.thumb_func
 164              		.type	ClockSetup, %function
 165              	ClockSetup:
 166              	.LFB5:
 212:Generated_Source\PSoC4/cyfitter_cfg.c **** 
 167              		.loc 1 212 0
 168              		.cfi_startproc
 169              		@ args = 0, pretend = 0, frame = 0
 170              		@ frame_needed = 0, uses_anonymous_args = 0
 171 0000 70B5     		push	{r4, r5, r6, lr}
 172              		.cfi_def_cfa_offset 16
 173              		.cfi_offset 4, -16
 174              		.cfi_offset 5, -12
ARM GAS  C:\Users\casey\AppData\Local\Temp\ccLiVS15.s 			page 9


 175              		.cfi_offset 6, -8
 176              		.cfi_offset 14, -4
 215:Generated_Source\PSoC4/cyfitter_cfg.c **** 
 177              		.loc 1 215 0
 178 0002 1222     		movs	r2, #18
 179 0004 174B     		ldr	r3, .L11
 180 0006 1A60     		str	r2, [r3]
 218:Generated_Source\PSoC4/cyfitter_cfg.c **** 	CyDelayCycles(12000000u); /* WCO may take up to 500ms to start */
 181              		.loc 1 218 0
 182 0008 FFF7FEFF 		bl	CySysClkWcoStart
 183              	.LVL15:
 219:Generated_Source\PSoC4/cyfitter_cfg.c **** 
 184              		.loc 1 219 0
 185 000c 1648     		ldr	r0, .L11+4
 186 000e FFF7FEFF 		bl	CyDelayCycles
 187              	.LVL16:
 222:Generated_Source\PSoC4/cyfitter_cfg.c **** 	/* CYDEV_CLK_ILO_CONFIG Starting address: CYDEV_CLK_ILO_CONFIG */
 188              		.loc 1 222 0
 189 0012 3020     		movs	r0, #48
 190 0014 FFF7FEFF 		bl	CySysClkWriteImoFreq
 191              	.LVL17:
 224:Generated_Source\PSoC4/cyfitter_cfg.c **** 
 192              		.loc 1 224 0
 193 0018 144A     		ldr	r2, .L11+8
 194 001a 154B     		ldr	r3, .L11+12
 195 001c 1A60     		str	r2, [r3]
 227:Generated_Source\PSoC4/cyfitter_cfg.c **** 
 196              		.loc 1 227 0
 197 001e 154C     		ldr	r4, .L11+16
 198 0020 8025     		movs	r5, #128
 199 0022 ED05     		lsls	r5, r5, #23
 200 0024 2560     		str	r5, [r4]
 231:Generated_Source\PSoC4/cyfitter_cfg.c **** 	CY_SET_REG32((void *)CYREG_PERI_DIV_CMD, 0x8000FF40u);
 201              		.loc 1 231 0
 202 0026 0022     		movs	r2, #0
 203 0028 134B     		ldr	r3, .L11+20
 204 002a 1A60     		str	r2, [r3]
 232:Generated_Source\PSoC4/cyfitter_cfg.c **** 	CY_SET_REG32((void *)CYREG_PERI_DIV_16_CTL1, 0x00001C00u);
 205              		.loc 1 232 0
 206 002c 134B     		ldr	r3, .L11+24
 207 002e 144A     		ldr	r2, .L11+28
 208 0030 1A60     		str	r2, [r3]
 233:Generated_Source\PSoC4/cyfitter_cfg.c **** 	CY_SET_REG32((void *)CYREG_PERI_DIV_CMD, 0x8000FF41u);
 209              		.loc 1 233 0
 210 0032 E021     		movs	r1, #224
 211 0034 4901     		lsls	r1, r1, #5
 212 0036 134A     		ldr	r2, .L11+32
 213 0038 1160     		str	r1, [r2]
 234:Generated_Source\PSoC4/cyfitter_cfg.c **** 
 214              		.loc 1 234 0
 215 003a 134A     		ldr	r2, .L11+36
 216 003c 1A60     		str	r2, [r3]
 237:Generated_Source\PSoC4/cyfitter_cfg.c **** 
 217              		.loc 1 237 0
 218 003e 8022     		movs	r2, #128
 219 0040 1206     		lsls	r2, r2, #24
 220 0042 124B     		ldr	r3, .L11+40
ARM GAS  C:\Users\casey\AppData\Local\Temp\ccLiVS15.s 			page 10


 221 0044 1A60     		str	r2, [r3]
 240:Generated_Source\PSoC4/cyfitter_cfg.c **** 
 222              		.loc 1 240 0
 223 0046 124A     		ldr	r2, .L11+44
 224 0048 124B     		ldr	r3, .L11+48
 225 004a 1A60     		str	r2, [r3]
 243:Generated_Source\PSoC4/cyfitter_cfg.c **** 
 226              		.loc 1 243 0
 227 004c 4122     		movs	r2, #65
 228 004e 124B     		ldr	r3, .L11+52
 229 0050 1A60     		str	r2, [r3]
 245:Generated_Source\PSoC4/cyfitter_cfg.c **** 	CyIntEnable(8u);
 230              		.loc 1 245 0
 231 0052 1249     		ldr	r1, .L11+56
 232 0054 0820     		movs	r0, #8
 233 0056 FFF7FEFF 		bl	CyIntSetVector
 234              	.LVL18:
 246:Generated_Source\PSoC4/cyfitter_cfg.c **** 	CY_SET_REG32((void *)(CYREG_WDT_CONFIG), 0x40000000u);
 235              		.loc 1 246 0
 236 005a 0820     		movs	r0, #8
 237 005c FFF7FEFF 		bl	CyIntEnable
 238              	.LVL19:
 247:Generated_Source\PSoC4/cyfitter_cfg.c **** }
 239              		.loc 1 247 0
 240 0060 2560     		str	r5, [r4]
 248:Generated_Source\PSoC4/cyfitter_cfg.c **** 
 241              		.loc 1 248 0
 242              		@ sp needed
 243 0062 70BD     		pop	{r4, r5, r6, pc}
 244              	.L12:
 245              		.align	2
 246              	.L11:
 247 0064 30001040 		.word	1074790448
 248 0068 001BB700 		.word	12000000
 249 006c 06000080 		.word	-2147483642
 250 0070 04010B40 		.word	1074462980
 251 0074 0C020B40 		.word	1074463244
 252 0078 00030140 		.word	1073808128
 253 007c 00000140 		.word	1073807360
 254 0080 40FF0080 		.word	-2147418304
 255 0084 04030140 		.word	1073808132
 256 0088 41FF0080 		.word	-2147418303
 257 008c 08010B40 		.word	1074462984
 258 0090 49020400 		.word	262729
 259 0094 00010B40 		.word	1074462976
 260 0098 14010140 		.word	1073807636
 261 009c 00000000 		.word	CySysWdtIsr
 262              		.cfi_endproc
 263              	.LFE5:
 264              		.size	ClockSetup, .-ClockSetup
 265              		.align	2
 266              		.global	cyfitter_cfg
 267              		.code	16
 268              		.thumb_func
 269              		.type	cyfitter_cfg, %function
 270              	cyfitter_cfg:
 271              	.LFB7:
ARM GAS  C:\Users\casey\AppData\Local\Temp\ccLiVS15.s 			page 11


 276:Generated_Source\PSoC4/cyfitter_cfg.c **** 
 277:Generated_Source\PSoC4/cyfitter_cfg.c **** 
 278:Generated_Source\PSoC4/cyfitter_cfg.c **** 
 279:Generated_Source\PSoC4/cyfitter_cfg.c **** 
 280:Generated_Source\PSoC4/cyfitter_cfg.c **** /*******************************************************************************
 281:Generated_Source\PSoC4/cyfitter_cfg.c **** * Function Name: cyfitter_cfg
 282:Generated_Source\PSoC4/cyfitter_cfg.c **** ********************************************************************************
 283:Generated_Source\PSoC4/cyfitter_cfg.c **** * Summary:
 284:Generated_Source\PSoC4/cyfitter_cfg.c **** *  This function is called by the start-up code for the selected device. It
 285:Generated_Source\PSoC4/cyfitter_cfg.c **** *  performs all of the necessary device configuration based on the design
 286:Generated_Source\PSoC4/cyfitter_cfg.c **** *  settings.  This includes settings from the Design Wide Resources (DWR) such
 287:Generated_Source\PSoC4/cyfitter_cfg.c **** *  as Clocks and Pins as well as any component configuration that is necessary.
 288:Generated_Source\PSoC4/cyfitter_cfg.c **** *
 289:Generated_Source\PSoC4/cyfitter_cfg.c **** * Parameters:
 290:Generated_Source\PSoC4/cyfitter_cfg.c **** *   void
 291:Generated_Source\PSoC4/cyfitter_cfg.c **** *
 292:Generated_Source\PSoC4/cyfitter_cfg.c **** * Return:
 293:Generated_Source\PSoC4/cyfitter_cfg.c **** *   void
 294:Generated_Source\PSoC4/cyfitter_cfg.c **** *
 295:Generated_Source\PSoC4/cyfitter_cfg.c **** *******************************************************************************/
 296:Generated_Source\PSoC4/cyfitter_cfg.c **** CY_CFG_SECTION
 297:Generated_Source\PSoC4/cyfitter_cfg.c **** void cyfitter_cfg(void)
 298:Generated_Source\PSoC4/cyfitter_cfg.c **** {
 272              		.loc 1 298 0
 273              		.cfi_startproc
 274              		@ args = 0, pretend = 0, frame = 0
 275              		@ frame_needed = 0, uses_anonymous_args = 0
 276 00a0 10B5     		push	{r4, lr}
 277              		.cfi_def_cfa_offset 8
 278              		.cfi_offset 4, -8
 279              		.cfi_offset 14, -4
 299:Generated_Source\PSoC4/cyfitter_cfg.c **** 	/* Disable interrupts by default. Let user enable if/when they want. */
 300:Generated_Source\PSoC4/cyfitter_cfg.c **** 	CyGlobalIntDisable;
 280              		.loc 1 300 0
 281              		.syntax divided
 282              	@ 300 "Generated_Source\PSoC4\cyfitter_cfg.c" 1
 283 00a2 72B6     		CPSID   i
 284              	@ 0 "" 2
 301:Generated_Source\PSoC4/cyfitter_cfg.c **** 
 302:Generated_Source\PSoC4/cyfitter_cfg.c **** 	/* Enable the clock in the interrupt controller for the routed interrupts */
 303:Generated_Source\PSoC4/cyfitter_cfg.c **** 	CY_SET_REG8((void *)CYREG_UDB_UDB_INT_CLK_CTL, 0x01u);
 285              		.loc 1 303 0
 286              		.thumb
 287              		.syntax unified
 288 00a4 0122     		movs	r2, #1
 289 00a6 334B     		ldr	r3, .L16
 290 00a8 1A70     		strb	r2, [r3]
 291              	.LVL20:
 292              	.LBB3:
 304:Generated_Source\PSoC4/cyfitter_cfg.c **** 	{
 305:Generated_Source\PSoC4/cyfitter_cfg.c **** 		static const uint32 CYCODE cy_cfg_addr_table[] = {
 306:Generated_Source\PSoC4/cyfitter_cfg.c **** 			0x400F0001u, /* Base address: 0x400F0000 Count: 1 */
 307:Generated_Source\PSoC4/cyfitter_cfg.c **** 			0x400F3101u, /* Base address: 0x400F3100 Count: 1 */
 308:Generated_Source\PSoC4/cyfitter_cfg.c **** 			0x400F3203u, /* Base address: 0x400F3200 Count: 3 */
 309:Generated_Source\PSoC4/cyfitter_cfg.c **** 			0x400F3307u, /* Base address: 0x400F3300 Count: 7 */
 310:Generated_Source\PSoC4/cyfitter_cfg.c **** 			0x400F3434u, /* Base address: 0x400F3400 Count: 52 */
 311:Generated_Source\PSoC4/cyfitter_cfg.c **** 			0x400F3519u, /* Base address: 0x400F3500 Count: 25 */
ARM GAS  C:\Users\casey\AppData\Local\Temp\ccLiVS15.s 			page 12


 312:Generated_Source\PSoC4/cyfitter_cfg.c **** 			0x400F3701u, /* Base address: 0x400F3700 Count: 1 */
 313:Generated_Source\PSoC4/cyfitter_cfg.c **** 			0x400F4005u, /* Base address: 0x400F4000 Count: 5 */
 314:Generated_Source\PSoC4/cyfitter_cfg.c **** 			0x400F4101u, /* Base address: 0x400F4100 Count: 1 */
 315:Generated_Source\PSoC4/cyfitter_cfg.c **** 			0x400F4201u, /* Base address: 0x400F4200 Count: 1 */
 316:Generated_Source\PSoC4/cyfitter_cfg.c **** 			0x400F4302u, /* Base address: 0x400F4300 Count: 2 */
 317:Generated_Source\PSoC4/cyfitter_cfg.c **** 			0x400F4405u, /* Base address: 0x400F4400 Count: 5 */
 318:Generated_Source\PSoC4/cyfitter_cfg.c **** 			0x400F4502u, /* Base address: 0x400F4500 Count: 2 */
 319:Generated_Source\PSoC4/cyfitter_cfg.c **** 			0x400F6003u, /* Base address: 0x400F6000 Count: 3 */
 320:Generated_Source\PSoC4/cyfitter_cfg.c **** 		};
 321:Generated_Source\PSoC4/cyfitter_cfg.c **** 
 322:Generated_Source\PSoC4/cyfitter_cfg.c **** 		static const cy_cfg_addrvalue_t CYCODE cy_cfg_data_table[] = {
 323:Generated_Source\PSoC4/cyfitter_cfg.c **** 			{0x85u, 0x0Du},
 324:Generated_Source\PSoC4/cyfitter_cfg.c **** 			{0xE2u, 0x02u},
 325:Generated_Source\PSoC4/cyfitter_cfg.c **** 			{0xD6u, 0x08u},
 326:Generated_Source\PSoC4/cyfitter_cfg.c **** 			{0xDBu, 0x04u},
 327:Generated_Source\PSoC4/cyfitter_cfg.c **** 			{0xDDu, 0x90u},
 328:Generated_Source\PSoC4/cyfitter_cfg.c **** 			{0x58u, 0x50u},
 329:Generated_Source\PSoC4/cyfitter_cfg.c **** 			{0x60u, 0x0Au},
 330:Generated_Source\PSoC4/cyfitter_cfg.c **** 			{0x62u, 0x20u},
 331:Generated_Source\PSoC4/cyfitter_cfg.c **** 			{0x98u, 0x50u},
 332:Generated_Source\PSoC4/cyfitter_cfg.c **** 			{0xB0u, 0x50u},
 333:Generated_Source\PSoC4/cyfitter_cfg.c **** 			{0xD6u, 0x0Cu},
 334:Generated_Source\PSoC4/cyfitter_cfg.c **** 			{0xD8u, 0x0Cu},
 335:Generated_Source\PSoC4/cyfitter_cfg.c **** 			{0x40u, 0x54u},
 336:Generated_Source\PSoC4/cyfitter_cfg.c **** 			{0x49u, 0xFFu},
 337:Generated_Source\PSoC4/cyfitter_cfg.c **** 			{0x4Au, 0xFFu},
 338:Generated_Source\PSoC4/cyfitter_cfg.c **** 			{0x4Bu, 0xFFu},
 339:Generated_Source\PSoC4/cyfitter_cfg.c **** 			{0x4Fu, 0x01u},
 340:Generated_Source\PSoC4/cyfitter_cfg.c **** 			{0x50u, 0x18u},
 341:Generated_Source\PSoC4/cyfitter_cfg.c **** 			{0x52u, 0x80u},
 342:Generated_Source\PSoC4/cyfitter_cfg.c **** 			{0x5Au, 0x0Au},
 343:Generated_Source\PSoC4/cyfitter_cfg.c **** 			{0x5Bu, 0x0Bu},
 344:Generated_Source\PSoC4/cyfitter_cfg.c **** 			{0x5Du, 0x99u},
 345:Generated_Source\PSoC4/cyfitter_cfg.c **** 			{0x5Fu, 0x01u},
 346:Generated_Source\PSoC4/cyfitter_cfg.c **** 			{0x60u, 0x40u},
 347:Generated_Source\PSoC4/cyfitter_cfg.c **** 			{0x62u, 0x40u},
 348:Generated_Source\PSoC4/cyfitter_cfg.c **** 			{0x64u, 0x40u},
 349:Generated_Source\PSoC4/cyfitter_cfg.c **** 			{0x65u, 0x40u},
 350:Generated_Source\PSoC4/cyfitter_cfg.c **** 			{0x66u, 0x80u},
 351:Generated_Source\PSoC4/cyfitter_cfg.c **** 			{0x68u, 0x80u},
 352:Generated_Source\PSoC4/cyfitter_cfg.c **** 			{0x6Au, 0x80u},
 353:Generated_Source\PSoC4/cyfitter_cfg.c **** 			{0x6Cu, 0x80u},
 354:Generated_Source\PSoC4/cyfitter_cfg.c **** 			{0x6Eu, 0x80u},
 355:Generated_Source\PSoC4/cyfitter_cfg.c **** 			{0x82u, 0x01u},
 356:Generated_Source\PSoC4/cyfitter_cfg.c **** 			{0x92u, 0x01u},
 357:Generated_Source\PSoC4/cyfitter_cfg.c **** 			{0xB0u, 0x01u},
 358:Generated_Source\PSoC4/cyfitter_cfg.c **** 			{0xB6u, 0x01u},
 359:Generated_Source\PSoC4/cyfitter_cfg.c **** 			{0xBEu, 0x01u},
 360:Generated_Source\PSoC4/cyfitter_cfg.c **** 			{0xC0u, 0x54u},
 361:Generated_Source\PSoC4/cyfitter_cfg.c **** 			{0xC5u, 0xECu},
 362:Generated_Source\PSoC4/cyfitter_cfg.c **** 			{0xC6u, 0x02u},
 363:Generated_Source\PSoC4/cyfitter_cfg.c **** 			{0xC8u, 0x07u},
 364:Generated_Source\PSoC4/cyfitter_cfg.c **** 			{0xC9u, 0xFFu},
 365:Generated_Source\PSoC4/cyfitter_cfg.c **** 			{0xCAu, 0xFFu},
 366:Generated_Source\PSoC4/cyfitter_cfg.c **** 			{0xCBu, 0xFFu},
 367:Generated_Source\PSoC4/cyfitter_cfg.c **** 			{0xCDu, 0x83u},
 368:Generated_Source\PSoC4/cyfitter_cfg.c **** 			{0xCEu, 0x03u},
ARM GAS  C:\Users\casey\AppData\Local\Temp\ccLiVS15.s 			page 13


 369:Generated_Source\PSoC4/cyfitter_cfg.c **** 			{0xCFu, 0x01u},
 370:Generated_Source\PSoC4/cyfitter_cfg.c **** 			{0xD0u, 0x18u},
 371:Generated_Source\PSoC4/cyfitter_cfg.c **** 			{0xD4u, 0x01u},
 372:Generated_Source\PSoC4/cyfitter_cfg.c **** 			{0xD8u, 0x0Au},
 373:Generated_Source\PSoC4/cyfitter_cfg.c **** 			{0xDAu, 0x0Au},
 374:Generated_Source\PSoC4/cyfitter_cfg.c **** 			{0xDBu, 0x0Au},
 375:Generated_Source\PSoC4/cyfitter_cfg.c **** 			{0xDCu, 0x09u},
 376:Generated_Source\PSoC4/cyfitter_cfg.c **** 			{0xDDu, 0x99u},
 377:Generated_Source\PSoC4/cyfitter_cfg.c **** 			{0xDFu, 0x01u},
 378:Generated_Source\PSoC4/cyfitter_cfg.c **** 			{0xE0u, 0x40u},
 379:Generated_Source\PSoC4/cyfitter_cfg.c **** 			{0xE2u, 0x40u},
 380:Generated_Source\PSoC4/cyfitter_cfg.c **** 			{0xE4u, 0x40u},
 381:Generated_Source\PSoC4/cyfitter_cfg.c **** 			{0xE5u, 0x40u},
 382:Generated_Source\PSoC4/cyfitter_cfg.c **** 			{0xE6u, 0x80u},
 383:Generated_Source\PSoC4/cyfitter_cfg.c **** 			{0xE8u, 0x80u},
 384:Generated_Source\PSoC4/cyfitter_cfg.c **** 			{0xEAu, 0x80u},
 385:Generated_Source\PSoC4/cyfitter_cfg.c **** 			{0xECu, 0x80u},
 386:Generated_Source\PSoC4/cyfitter_cfg.c **** 			{0xEEu, 0x80u},
 387:Generated_Source\PSoC4/cyfitter_cfg.c **** 			{0x06u, 0x80u},
 388:Generated_Source\PSoC4/cyfitter_cfg.c **** 			{0x0Cu, 0x02u},
 389:Generated_Source\PSoC4/cyfitter_cfg.c **** 			{0x1Eu, 0x80u},
 390:Generated_Source\PSoC4/cyfitter_cfg.c **** 			{0x1Fu, 0x80u},
 391:Generated_Source\PSoC4/cyfitter_cfg.c **** 			{0x42u, 0x80u},
 392:Generated_Source\PSoC4/cyfitter_cfg.c **** 			{0x46u, 0x80u},
 393:Generated_Source\PSoC4/cyfitter_cfg.c **** 			{0x48u, 0x02u},
 394:Generated_Source\PSoC4/cyfitter_cfg.c **** 			{0x4Cu, 0x02u},
 395:Generated_Source\PSoC4/cyfitter_cfg.c **** 			{0x4Du, 0x04u},
 396:Generated_Source\PSoC4/cyfitter_cfg.c **** 			{0x4Fu, 0x01u},
 397:Generated_Source\PSoC4/cyfitter_cfg.c **** 			{0x56u, 0x80u},
 398:Generated_Source\PSoC4/cyfitter_cfg.c **** 			{0x5Du, 0x04u},
 399:Generated_Source\PSoC4/cyfitter_cfg.c **** 			{0x5Eu, 0x80u},
 400:Generated_Source\PSoC4/cyfitter_cfg.c **** 			{0x5Fu, 0x01u},
 401:Generated_Source\PSoC4/cyfitter_cfg.c **** 			{0x70u, 0x02u},
 402:Generated_Source\PSoC4/cyfitter_cfg.c **** 			{0x78u, 0x0Au},
 403:Generated_Source\PSoC4/cyfitter_cfg.c **** 			{0x7Eu, 0x20u},
 404:Generated_Source\PSoC4/cyfitter_cfg.c **** 			{0x98u, 0x0Au},
 405:Generated_Source\PSoC4/cyfitter_cfg.c **** 			{0xA2u, 0x20u},
 406:Generated_Source\PSoC4/cyfitter_cfg.c **** 			{0xC0u, 0x10u},
 407:Generated_Source\PSoC4/cyfitter_cfg.c **** 			{0xC2u, 0x10u},
 408:Generated_Source\PSoC4/cyfitter_cfg.c **** 			{0xD0u, 0x81u},
 409:Generated_Source\PSoC4/cyfitter_cfg.c **** 			{0xD2u, 0x18u},
 410:Generated_Source\PSoC4/cyfitter_cfg.c **** 			{0xD6u, 0xD0u},
 411:Generated_Source\PSoC4/cyfitter_cfg.c **** 			{0xDEu, 0x43u},
 412:Generated_Source\PSoC4/cyfitter_cfg.c **** 			{0xAFu, 0x80u},
 413:Generated_Source\PSoC4/cyfitter_cfg.c **** 			{0x6Bu, 0x20u},
 414:Generated_Source\PSoC4/cyfitter_cfg.c **** 			{0x6Fu, 0x20u},
 415:Generated_Source\PSoC4/cyfitter_cfg.c **** 			{0x87u, 0x20u},
 416:Generated_Source\PSoC4/cyfitter_cfg.c **** 			{0xDAu, 0xC0u},
 417:Generated_Source\PSoC4/cyfitter_cfg.c **** 			{0xE2u, 0x40u},
 418:Generated_Source\PSoC4/cyfitter_cfg.c **** 			{0xA7u, 0x20u},
 419:Generated_Source\PSoC4/cyfitter_cfg.c **** 			{0xA7u, 0x20u},
 420:Generated_Source\PSoC4/cyfitter_cfg.c **** 			{0xAFu, 0x20u},
 421:Generated_Source\PSoC4/cyfitter_cfg.c **** 			{0xEEu, 0x10u},
 422:Generated_Source\PSoC4/cyfitter_cfg.c **** 			{0x07u, 0x01u},
 423:Generated_Source\PSoC4/cyfitter_cfg.c **** 			{0x26u, 0x50u},
 424:Generated_Source\PSoC4/cyfitter_cfg.c **** 			{0x87u, 0x01u},
 425:Generated_Source\PSoC4/cyfitter_cfg.c **** 			{0xC0u, 0x01u},
ARM GAS  C:\Users\casey\AppData\Local\Temp\ccLiVS15.s 			page 14


 426:Generated_Source\PSoC4/cyfitter_cfg.c **** 			{0xC8u, 0x04u},
 427:Generated_Source\PSoC4/cyfitter_cfg.c **** 			{0xB2u, 0x50u},
 428:Generated_Source\PSoC4/cyfitter_cfg.c **** 			{0xEAu, 0x05u},
 429:Generated_Source\PSoC4/cyfitter_cfg.c **** 			{0x02u, 0x01u},
 430:Generated_Source\PSoC4/cyfitter_cfg.c **** 			{0x11u, 0x01u},
 431:Generated_Source\PSoC4/cyfitter_cfg.c **** 			{0x13u, 0x01u},
 432:Generated_Source\PSoC4/cyfitter_cfg.c **** 		};
 433:Generated_Source\PSoC4/cyfitter_cfg.c **** 
 434:Generated_Source\PSoC4/cyfitter_cfg.c **** 
 435:Generated_Source\PSoC4/cyfitter_cfg.c **** 
 436:Generated_Source\PSoC4/cyfitter_cfg.c **** 		CYPACKED typedef struct {
 437:Generated_Source\PSoC4/cyfitter_cfg.c **** 			void CYFAR *address;
 438:Generated_Source\PSoC4/cyfitter_cfg.c **** 			uint16 size;
 439:Generated_Source\PSoC4/cyfitter_cfg.c **** 		} CYPACKED_ATTR cfg_memset_t;
 440:Generated_Source\PSoC4/cyfitter_cfg.c **** 
 441:Generated_Source\PSoC4/cyfitter_cfg.c **** 		static const cfg_memset_t CYCODE cfg_memset_list[] = {
 442:Generated_Source\PSoC4/cyfitter_cfg.c **** 			/* address, size */
 443:Generated_Source\PSoC4/cyfitter_cfg.c **** 			{(void CYFAR *)(CYDEV_UDB_P0_U0_BASE), 2048u},
 444:Generated_Source\PSoC4/cyfitter_cfg.c **** 			{(void CYFAR *)(CYDEV_UDB_DSI0_BASE), 2048u},
 445:Generated_Source\PSoC4/cyfitter_cfg.c **** 		};
 446:Generated_Source\PSoC4/cyfitter_cfg.c **** 
 447:Generated_Source\PSoC4/cyfitter_cfg.c **** 		uint8 CYDATA i;
 448:Generated_Source\PSoC4/cyfitter_cfg.c **** 
 449:Generated_Source\PSoC4/cyfitter_cfg.c **** 		/* Zero out critical memory blocks before beginning configuration */
 450:Generated_Source\PSoC4/cyfitter_cfg.c **** 		for (i = 0u; i < (sizeof(cfg_memset_list)/sizeof(cfg_memset_list[0])); i++)
 293              		.loc 1 450 0
 294 00aa 0024     		movs	r4, #0
 295 00ac 0FE0     		b	.L14
 296              	.LVL21:
 297              	.L15:
 298              	.LBB4:
 451:Generated_Source\PSoC4/cyfitter_cfg.c **** 		{
 452:Generated_Source\PSoC4/cyfitter_cfg.c **** 			const cfg_memset_t CYCODE * CYDATA ms = &cfg_memset_list[i];
 453:Generated_Source\PSoC4/cyfitter_cfg.c **** 			CYMEMZERO(ms->address, (size_t)(uint32)(ms->size));
 299              		.loc 1 453 0 discriminator 3
 300 00ae 3248     		ldr	r0, .L16+4
 301 00b0 6200     		lsls	r2, r4, #1
 302 00b2 1319     		adds	r3, r2, r4
 303 00b4 5900     		lsls	r1, r3, #1
 304 00b6 0B00     		movs	r3, r1
 305 00b8 4118     		adds	r1, r0, r1
 306 00ba 8988     		ldrh	r1, [r1, #4]
 307 00bc 1A5A     		ldrh	r2, [r3, r0]
 308 00be C318     		adds	r3, r0, r3
 309 00c0 5888     		ldrh	r0, [r3, #2]
 310 00c2 0004     		lsls	r0, r0, #16
 311 00c4 1043     		orrs	r0, r2
 312 00c6 FFF7FEFF 		bl	CYMEMZERO
 313              	.LVL22:
 314              	.LBE4:
 450:Generated_Source\PSoC4/cyfitter_cfg.c **** 		{
 315              		.loc 1 450 0 discriminator 3
 316 00ca 0134     		adds	r4, r4, #1
 317              	.LVL23:
 318 00cc E4B2     		uxtb	r4, r4
 319              	.LVL24:
 320              	.L14:
ARM GAS  C:\Users\casey\AppData\Local\Temp\ccLiVS15.s 			page 15


 450:Generated_Source\PSoC4/cyfitter_cfg.c **** 		{
 321              		.loc 1 450 0 is_stmt 0 discriminator 1
 322 00ce 012C     		cmp	r4, #1
 323 00d0 EDD9     		bls	.L15
 454:Generated_Source\PSoC4/cyfitter_cfg.c **** 		}
 455:Generated_Source\PSoC4/cyfitter_cfg.c **** 
 456:Generated_Source\PSoC4/cyfitter_cfg.c **** 		cfg_write_bytes32(cy_cfg_addr_table, cy_cfg_data_table);
 324              		.loc 1 456 0 is_stmt 1
 325 00d2 2949     		ldr	r1, .L16+4
 326 00d4 0C31     		adds	r1, r1, #12
 327 00d6 2948     		ldr	r0, .L16+8
 328 00d8 6830     		adds	r0, r0, #104
 329 00da FFF7FEFF 		bl	cfg_write_bytes32
 330              	.LVL25:
 457:Generated_Source\PSoC4/cyfitter_cfg.c **** 
 458:Generated_Source\PSoC4/cyfitter_cfg.c **** 		/* HSIOM Starting address: CYDEV_HSIOM_BASE */
 459:Generated_Source\PSoC4/cyfitter_cfg.c **** 		CY_SET_REG32((void *)(CYDEV_HSIOM_BASE), 0x080000AAu);
 331              		.loc 1 459 0
 332 00de 284A     		ldr	r2, .L16+12
 333 00e0 284B     		ldr	r3, .L16+16
 334 00e2 1A60     		str	r2, [r3]
 460:Generated_Source\PSoC4/cyfitter_cfg.c **** 		CY_SET_REG32((void *)(CYREG_HSIOM_PORT_SEL3), 0x0000EE00u);
 335              		.loc 1 460 0
 336 00e4 EE22     		movs	r2, #238
 337 00e6 1202     		lsls	r2, r2, #8
 338 00e8 274B     		ldr	r3, .L16+20
 339 00ea 1A60     		str	r2, [r3]
 461:Generated_Source\PSoC4/cyfitter_cfg.c **** 		CY_SET_REG32((void *)(CYREG_HSIOM_PORT_SEL7), 0x00000099u);
 340              		.loc 1 461 0
 341 00ec 9922     		movs	r2, #153
 342 00ee 274B     		ldr	r3, .L16+24
 343 00f0 1A60     		str	r2, [r3]
 462:Generated_Source\PSoC4/cyfitter_cfg.c **** 
 463:Generated_Source\PSoC4/cyfitter_cfg.c **** 		/* UDB_PA_1 Starting address: CYDEV_UDB_PA1_BASE */
 464:Generated_Source\PSoC4/cyfitter_cfg.c **** 		CY_SET_REG32((void *)(CYDEV_UDB_PA1_BASE), 0x00990000u);
 344              		.loc 1 464 0
 345 00f2 9923     		movs	r3, #153
 346 00f4 1B04     		lsls	r3, r3, #16
 347 00f6 264A     		ldr	r2, .L16+28
 348 00f8 1360     		str	r3, [r2]
 465:Generated_Source\PSoC4/cyfitter_cfg.c **** 
 466:Generated_Source\PSoC4/cyfitter_cfg.c **** 		/* UDB_PA_4 Starting address: CYDEV_UDB_PA4_BASE */
 467:Generated_Source\PSoC4/cyfitter_cfg.c **** 		CY_SET_REG32((void *)(CYDEV_UDB_PA4_BASE), 0x00990000u);
 349              		.loc 1 467 0
 350 00fa 264A     		ldr	r2, .L16+32
 351 00fc 1360     		str	r3, [r2]
 468:Generated_Source\PSoC4/cyfitter_cfg.c **** 
 469:Generated_Source\PSoC4/cyfitter_cfg.c **** 		/* UDB_PA_5 Starting address: CYDEV_UDB_PA5_BASE */
 470:Generated_Source\PSoC4/cyfitter_cfg.c **** 		CY_SET_REG32((void *)(CYDEV_UDB_PA5_BASE), 0x00990000u);
 352              		.loc 1 470 0
 353 00fe 264A     		ldr	r2, .L16+36
 354 0100 1360     		str	r3, [r2]
 471:Generated_Source\PSoC4/cyfitter_cfg.c **** 
 472:Generated_Source\PSoC4/cyfitter_cfg.c **** 		/* UDB_PA_7 Starting address: CYDEV_UDB_PA7_BASE */
 473:Generated_Source\PSoC4/cyfitter_cfg.c **** 		CY_SET_REG32((void *)(CYDEV_UDB_PA7_BASE), 0x00990000u);
 355              		.loc 1 473 0
 356 0102 264A     		ldr	r2, .L16+40
ARM GAS  C:\Users\casey\AppData\Local\Temp\ccLiVS15.s 			page 16


 357 0104 1360     		str	r3, [r2]
 474:Generated_Source\PSoC4/cyfitter_cfg.c **** 
 475:Generated_Source\PSoC4/cyfitter_cfg.c **** 		/* INT_SELECT Starting address: CYDEV_CPUSS_INT_SEL */
 476:Generated_Source\PSoC4/cyfitter_cfg.c **** 		CY_SET_REG32((void *)(CYREG_CPUSS_INT_SEL), 0x00000003u);
 358              		.loc 1 476 0
 359 0106 0323     		movs	r3, #3
 360 0108 254A     		ldr	r2, .L16+44
 361 010a 1360     		str	r3, [r2]
 477:Generated_Source\PSoC4/cyfitter_cfg.c **** 
 478:Generated_Source\PSoC4/cyfitter_cfg.c **** 		/* INT_CONFIG Starting address: CYDEV_UDB_INT_CFG */
 479:Generated_Source\PSoC4/cyfitter_cfg.c **** 		CY_SET_REG32((void *)(CYREG_UDB_INT_CFG), 0x00000003u);
 362              		.loc 1 479 0
 363 010c 254A     		ldr	r2, .L16+48
 364 010e 1360     		str	r3, [r2]
 480:Generated_Source\PSoC4/cyfitter_cfg.c **** 
 481:Generated_Source\PSoC4/cyfitter_cfg.c **** 		/* Enable UDB array and digital routing */
 482:Generated_Source\PSoC4/cyfitter_cfg.c **** 		CY_SET_XTND_REG8((void *)CYREG_UDB_UDB_WAIT_CFG, (uint8)((CY_GET_XTND_REG8((void *)CYREG_UDB_UDB_
 365              		.loc 1 482 0
 366 0110 2548     		ldr	r0, .L16+52
 367 0112 0378     		ldrb	r3, [r0]
 368 0114 3C21     		movs	r1, #60
 369 0116 8B43     		bics	r3, r1
 370 0118 1422     		movs	r2, #20
 371 011a 1343     		orrs	r3, r2
 372 011c DBB2     		uxtb	r3, r3
 373 011e 0370     		strb	r3, [r0]
 483:Generated_Source\PSoC4/cyfitter_cfg.c **** 		CY_SET_XTND_REG8((void *)CYREG_UDB_UDB_BANK_CTL, (uint8)(CY_GET_XTND_REG8((void *)CYREG_UDB_UDB_B
 374              		.loc 1 483 0
 375 0120 224A     		ldr	r2, .L16+56
 376 0122 1078     		ldrb	r0, [r2]
 377 0124 1623     		movs	r3, #22
 378 0126 0343     		orrs	r3, r0
 379 0128 DBB2     		uxtb	r3, r3
 380 012a 1370     		strb	r3, [r2]
 381              	.LBE3:
 484:Generated_Source\PSoC4/cyfitter_cfg.c **** 	}
 485:Generated_Source\PSoC4/cyfitter_cfg.c **** 
 486:Generated_Source\PSoC4/cyfitter_cfg.c **** 	/* Perform second pass device configuration. These items must be configured in specific order afte
 487:Generated_Source\PSoC4/cyfitter_cfg.c **** 	/* IOPINS0_0 Starting address: CYDEV_GPIO_PRT0_BASE */
 488:Generated_Source\PSoC4/cyfitter_cfg.c **** 	CY_SET_REG32((void *)(CYDEV_GPIO_PRT0_BASE), 0x00000006u);
 382              		.loc 1 488 0
 383 012c 0622     		movs	r2, #6
 384 012e 204B     		ldr	r3, .L16+60
 385 0130 1A60     		str	r2, [r3]
 489:Generated_Source\PSoC4/cyfitter_cfg.c **** 	CY_SET_REG32((void *)(CYREG_GPIO_PRT0_PC), 0x000402F1u);
 386              		.loc 1 489 0
 387 0132 204A     		ldr	r2, .L16+64
 388 0134 204B     		ldr	r3, .L16+68
 389 0136 1A60     		str	r2, [r3]
 490:Generated_Source\PSoC4/cyfitter_cfg.c **** 
 491:Generated_Source\PSoC4/cyfitter_cfg.c **** 	/* IOPINS0_1 Starting address: CYDEV_GPIO_PRT1_BASE */
 492:Generated_Source\PSoC4/cyfitter_cfg.c **** 	CY_SET_REG32((void *)(CYDEV_GPIO_PRT1_BASE), 0x0000003Cu);
 390              		.loc 1 492 0
 391 0138 204B     		ldr	r3, .L16+72
 392 013a 1960     		str	r1, [r3]
 493:Generated_Source\PSoC4/cyfitter_cfg.c **** 	CY_SET_REG32((void *)(CYREG_GPIO_PRT1_PC), 0x00012480u);
 393              		.loc 1 493 0
ARM GAS  C:\Users\casey\AppData\Local\Temp\ccLiVS15.s 			page 17


 394 013c 204A     		ldr	r2, .L16+76
 395 013e 214B     		ldr	r3, .L16+80
 396 0140 1A60     		str	r2, [r3]
 494:Generated_Source\PSoC4/cyfitter_cfg.c **** 
 495:Generated_Source\PSoC4/cyfitter_cfg.c **** 	/* IOPINS0_3 Starting address: CYDEV_GPIO_PRT3_BASE */
 496:Generated_Source\PSoC4/cyfitter_cfg.c **** 	CY_SET_REG32((void *)(CYREG_GPIO_PRT3_PC), 0x00000D80u);
 397              		.loc 1 496 0
 398 0142 D822     		movs	r2, #216
 399 0144 1201     		lsls	r2, r2, #4
 400 0146 204B     		ldr	r3, .L16+84
 401 0148 1A60     		str	r2, [r3]
 497:Generated_Source\PSoC4/cyfitter_cfg.c **** 
 498:Generated_Source\PSoC4/cyfitter_cfg.c **** 	/* IOPINS0_4 Starting address: CYDEV_GPIO_PRT4_BASE */
 499:Generated_Source\PSoC4/cyfitter_cfg.c **** 	CY_SET_REG32((void *)(CYDEV_GPIO_PRT4_BASE), 0x0000000Au);
 402              		.loc 1 499 0
 403 014a 0A22     		movs	r2, #10
 404 014c 1F4B     		ldr	r3, .L16+88
 405 014e 1A60     		str	r2, [r3]
 500:Generated_Source\PSoC4/cyfitter_cfg.c **** 	CY_SET_REG32((void *)(CYREG_GPIO_PRT4_PC), 0x00000630u);
 406              		.loc 1 500 0
 407 0150 C622     		movs	r2, #198
 408 0152 D200     		lsls	r2, r2, #3
 409 0154 1E4B     		ldr	r3, .L16+92
 410 0156 1A60     		str	r2, [r3]
 501:Generated_Source\PSoC4/cyfitter_cfg.c **** 
 502:Generated_Source\PSoC4/cyfitter_cfg.c **** 	/* IOPINS0_7 Starting address: CYDEV_GPIO_PRT7_BASE */
 503:Generated_Source\PSoC4/cyfitter_cfg.c **** 	CY_SET_REG32((void *)(CYDEV_GPIO_PRT7_BASE), 0x00000002u);
 411              		.loc 1 503 0
 412 0158 0223     		movs	r3, #2
 413 015a 1E4A     		ldr	r2, .L16+96
 414 015c 1360     		str	r3, [r2]
 504:Generated_Source\PSoC4/cyfitter_cfg.c **** 	CY_SET_REG32((void *)(CYREG_GPIO_PRT7_PC), 0x00000031u);
 415              		.loc 1 504 0
 416 015e 0B39     		subs	r1, r1, #11
 417 0160 1D4A     		ldr	r2, .L16+100
 418 0162 1160     		str	r1, [r2]
 505:Generated_Source\PSoC4/cyfitter_cfg.c **** 	CY_SET_REG32((void *)(CYREG_GPIO_PRT7_PC2), 0x00000002u);
 419              		.loc 1 505 0
 420 0164 1D4A     		ldr	r2, .L16+104
 421 0166 1360     		str	r3, [r2]
 506:Generated_Source\PSoC4/cyfitter_cfg.c **** 
 507:Generated_Source\PSoC4/cyfitter_cfg.c **** 
 508:Generated_Source\PSoC4/cyfitter_cfg.c **** 	/* Setup clocks based on selections from Clock DWR */
 509:Generated_Source\PSoC4/cyfitter_cfg.c **** 	ClockSetup();
 422              		.loc 1 509 0
 423 0168 FFF74AFF 		bl	ClockSetup
 424              	.LVL26:
 510:Generated_Source\PSoC4/cyfitter_cfg.c **** 
 511:Generated_Source\PSoC4/cyfitter_cfg.c **** 	/* Perform basic analog initialization to defaults */
 512:Generated_Source\PSoC4/cyfitter_cfg.c **** 	AnalogSetDefault();
 425              		.loc 1 512 0
 426 016c FFF7FEFF 		bl	AnalogSetDefault
 427              	.LVL27:
 513:Generated_Source\PSoC4/cyfitter_cfg.c **** 
 514:Generated_Source\PSoC4/cyfitter_cfg.c **** }
 428              		.loc 1 514 0
 429              		@ sp needed
ARM GAS  C:\Users\casey\AppData\Local\Temp\ccLiVS15.s 			page 18


 430              	.LVL28:
 431 0170 10BD     		pop	{r4, pc}
 432              	.L17:
 433 0172 C046     		.align	2
 434              	.L16:
 435 0174 1C700F40 		.word	1074753564
 436 0178 00000000 		.word	.LANCHOR0
 437 017c 80000000 		.word	.LANCHOR1
 438 0180 AA000008 		.word	134217898
 439 0184 00000240 		.word	1073872896
 440 0188 00030240 		.word	1073873664
 441 018c 00070240 		.word	1073874688
 442 0190 10500F40 		.word	1074745360
 443 0194 40500F40 		.word	1074745408
 444 0198 50500F40 		.word	1074745424
 445 019c 70500F40 		.word	1074745456
 446 01a0 20001040 		.word	1074790432
 447 01a4 00800F40 		.word	1074757632
 448 01a8 01700F40 		.word	1074753537
 449 01ac 00700F40 		.word	1074753536
 450 01b0 00000440 		.word	1074003968
 451 01b4 F1020400 		.word	262897
 452 01b8 08000440 		.word	1074003976
 453 01bc 00010440 		.word	1074004224
 454 01c0 80240100 		.word	74880
 455 01c4 08010440 		.word	1074004232
 456 01c8 08030440 		.word	1074004744
 457 01cc 00040440 		.word	1074004992
 458 01d0 08040440 		.word	1074005000
 459 01d4 00070440 		.word	1074005760
 460 01d8 08070440 		.word	1074005768
 461 01dc 18070440 		.word	1074005784
 462              		.cfi_endproc
 463              	.LFE7:
 464              		.size	cyfitter_cfg, .-cyfitter_cfg
 465              		.section	.rodata
 466              		.align	2
 467              		.set	.LANCHOR0,. + 0
 468              		.set	.LANCHOR1,. + 128
 469              		.type	cfg_memset_list.4971, %object
 470              		.size	cfg_memset_list.4971, 12
 471              	cfg_memset_list.4971:
 472 0000 00300F40 		.word	1074737152
 473 0004 0008     		.short	2048
 474 0006 00400F40 		.4byte	1074741248
 475 000a 0008     		.short	2048
 476              		.type	cy_cfg_data_table.4966, %object
 477              		.size	cy_cfg_data_table.4966, 218
 478              	cy_cfg_data_table.4966:
 479 000c 85       		.byte	-123
 480 000d 0D       		.byte	13
 481 000e E2       		.byte	-30
 482 000f 02       		.byte	2
 483 0010 D6       		.byte	-42
 484 0011 08       		.byte	8
 485 0012 DB       		.byte	-37
 486 0013 04       		.byte	4
ARM GAS  C:\Users\casey\AppData\Local\Temp\ccLiVS15.s 			page 19


 487 0014 DD       		.byte	-35
 488 0015 90       		.byte	-112
 489 0016 58       		.byte	88
 490 0017 50       		.byte	80
 491 0018 60       		.byte	96
 492 0019 0A       		.byte	10
 493 001a 62       		.byte	98
 494 001b 20       		.byte	32
 495 001c 98       		.byte	-104
 496 001d 50       		.byte	80
 497 001e B0       		.byte	-80
 498 001f 50       		.byte	80
 499 0020 D6       		.byte	-42
 500 0021 0C       		.byte	12
 501 0022 D8       		.byte	-40
 502 0023 0C       		.byte	12
 503 0024 40       		.byte	64
 504 0025 54       		.byte	84
 505 0026 49       		.byte	73
 506 0027 FF       		.byte	-1
 507 0028 4A       		.byte	74
 508 0029 FF       		.byte	-1
 509 002a 4B       		.byte	75
 510 002b FF       		.byte	-1
 511 002c 4F       		.byte	79
 512 002d 01       		.byte	1
 513 002e 50       		.byte	80
 514 002f 18       		.byte	24
 515 0030 52       		.byte	82
 516 0031 80       		.byte	-128
 517 0032 5A       		.byte	90
 518 0033 0A       		.byte	10
 519 0034 5B       		.byte	91
 520 0035 0B       		.byte	11
 521 0036 5D       		.byte	93
 522 0037 99       		.byte	-103
 523 0038 5F       		.byte	95
 524 0039 01       		.byte	1
 525 003a 60       		.byte	96
 526 003b 40       		.byte	64
 527 003c 62       		.byte	98
 528 003d 40       		.byte	64
 529 003e 64       		.byte	100
 530 003f 40       		.byte	64
 531 0040 65       		.byte	101
 532 0041 40       		.byte	64
 533 0042 66       		.byte	102
 534 0043 80       		.byte	-128
 535 0044 68       		.byte	104
 536 0045 80       		.byte	-128
 537 0046 6A       		.byte	106
 538 0047 80       		.byte	-128
 539 0048 6C       		.byte	108
 540 0049 80       		.byte	-128
 541 004a 6E       		.byte	110
 542 004b 80       		.byte	-128
 543 004c 82       		.byte	-126
ARM GAS  C:\Users\casey\AppData\Local\Temp\ccLiVS15.s 			page 20


 544 004d 01       		.byte	1
 545 004e 92       		.byte	-110
 546 004f 01       		.byte	1
 547 0050 B0       		.byte	-80
 548 0051 01       		.byte	1
 549 0052 B6       		.byte	-74
 550 0053 01       		.byte	1
 551 0054 BE       		.byte	-66
 552 0055 01       		.byte	1
 553 0056 C0       		.byte	-64
 554 0057 54       		.byte	84
 555 0058 C5       		.byte	-59
 556 0059 EC       		.byte	-20
 557 005a C6       		.byte	-58
 558 005b 02       		.byte	2
 559 005c C8       		.byte	-56
 560 005d 07       		.byte	7
 561 005e C9       		.byte	-55
 562 005f FF       		.byte	-1
 563 0060 CA       		.byte	-54
 564 0061 FF       		.byte	-1
 565 0062 CB       		.byte	-53
 566 0063 FF       		.byte	-1
 567 0064 CD       		.byte	-51
 568 0065 83       		.byte	-125
 569 0066 CE       		.byte	-50
 570 0067 03       		.byte	3
 571 0068 CF       		.byte	-49
 572 0069 01       		.byte	1
 573 006a D0       		.byte	-48
 574 006b 18       		.byte	24
 575 006c D4       		.byte	-44
 576 006d 01       		.byte	1
 577 006e D8       		.byte	-40
 578 006f 0A       		.byte	10
 579 0070 DA       		.byte	-38
 580 0071 0A       		.byte	10
 581 0072 DB       		.byte	-37
 582 0073 0A       		.byte	10
 583 0074 DC       		.byte	-36
 584 0075 09       		.byte	9
 585 0076 DD       		.byte	-35
 586 0077 99       		.byte	-103
 587 0078 DF       		.byte	-33
 588 0079 01       		.byte	1
 589 007a E0       		.byte	-32
 590 007b 40       		.byte	64
 591 007c E2       		.byte	-30
 592 007d 40       		.byte	64
 593 007e E4       		.byte	-28
 594 007f 40       		.byte	64
 595 0080 E5       		.byte	-27
 596 0081 40       		.byte	64
 597 0082 E6       		.byte	-26
 598 0083 80       		.byte	-128
 599 0084 E8       		.byte	-24
 600 0085 80       		.byte	-128
ARM GAS  C:\Users\casey\AppData\Local\Temp\ccLiVS15.s 			page 21


 601 0086 EA       		.byte	-22
 602 0087 80       		.byte	-128
 603 0088 EC       		.byte	-20
 604 0089 80       		.byte	-128
 605 008a EE       		.byte	-18
 606 008b 80       		.byte	-128
 607 008c 06       		.byte	6
 608 008d 80       		.byte	-128
 609 008e 0C       		.byte	12
 610 008f 02       		.byte	2
 611 0090 1E       		.byte	30
 612 0091 80       		.byte	-128
 613 0092 1F       		.byte	31
 614 0093 80       		.byte	-128
 615 0094 42       		.byte	66
 616 0095 80       		.byte	-128
 617 0096 46       		.byte	70
 618 0097 80       		.byte	-128
 619 0098 48       		.byte	72
 620 0099 02       		.byte	2
 621 009a 4C       		.byte	76
 622 009b 02       		.byte	2
 623 009c 4D       		.byte	77
 624 009d 04       		.byte	4
 625 009e 4F       		.byte	79
 626 009f 01       		.byte	1
 627 00a0 56       		.byte	86
 628 00a1 80       		.byte	-128
 629 00a2 5D       		.byte	93
 630 00a3 04       		.byte	4
 631 00a4 5E       		.byte	94
 632 00a5 80       		.byte	-128
 633 00a6 5F       		.byte	95
 634 00a7 01       		.byte	1
 635 00a8 70       		.byte	112
 636 00a9 02       		.byte	2
 637 00aa 78       		.byte	120
 638 00ab 0A       		.byte	10
 639 00ac 7E       		.byte	126
 640 00ad 20       		.byte	32
 641 00ae 98       		.byte	-104
 642 00af 0A       		.byte	10
 643 00b0 A2       		.byte	-94
 644 00b1 20       		.byte	32
 645 00b2 C0       		.byte	-64
 646 00b3 10       		.byte	16
 647 00b4 C2       		.byte	-62
 648 00b5 10       		.byte	16
 649 00b6 D0       		.byte	-48
 650 00b7 81       		.byte	-127
 651 00b8 D2       		.byte	-46
 652 00b9 18       		.byte	24
 653 00ba D6       		.byte	-42
 654 00bb D0       		.byte	-48
 655 00bc DE       		.byte	-34
 656 00bd 43       		.byte	67
 657 00be AF       		.byte	-81
ARM GAS  C:\Users\casey\AppData\Local\Temp\ccLiVS15.s 			page 22


 658 00bf 80       		.byte	-128
 659 00c0 6B       		.byte	107
 660 00c1 20       		.byte	32
 661 00c2 6F       		.byte	111
 662 00c3 20       		.byte	32
 663 00c4 87       		.byte	-121
 664 00c5 20       		.byte	32
 665 00c6 DA       		.byte	-38
 666 00c7 C0       		.byte	-64
 667 00c8 E2       		.byte	-30
 668 00c9 40       		.byte	64
 669 00ca A7       		.byte	-89
 670 00cb 20       		.byte	32
 671 00cc A7       		.byte	-89
 672 00cd 20       		.byte	32
 673 00ce AF       		.byte	-81
 674 00cf 20       		.byte	32
 675 00d0 EE       		.byte	-18
 676 00d1 10       		.byte	16
 677 00d2 07       		.byte	7
 678 00d3 01       		.byte	1
 679 00d4 26       		.byte	38
 680 00d5 50       		.byte	80
 681 00d6 87       		.byte	-121
 682 00d7 01       		.byte	1
 683 00d8 C0       		.byte	-64
 684 00d9 01       		.byte	1
 685 00da C8       		.byte	-56
 686 00db 04       		.byte	4
 687 00dc B2       		.byte	-78
 688 00dd 50       		.byte	80
 689 00de EA       		.byte	-22
 690 00df 05       		.byte	5
 691 00e0 02       		.byte	2
 692 00e1 01       		.byte	1
 693 00e2 11       		.byte	17
 694 00e3 01       		.byte	1
 695 00e4 13       		.byte	19
 696 00e5 01       		.byte	1
 697 00e6 0000     		.space	2
 698              		.type	cy_cfg_addr_table.4965, %object
 699              		.size	cy_cfg_addr_table.4965, 56
 700              	cy_cfg_addr_table.4965:
 701 00e8 01000F40 		.word	1074724865
 702 00ec 01310F40 		.word	1074737409
 703 00f0 03320F40 		.word	1074737667
 704 00f4 07330F40 		.word	1074737927
 705 00f8 34340F40 		.word	1074738228
 706 00fc 19350F40 		.word	1074738457
 707 0100 01370F40 		.word	1074738945
 708 0104 05400F40 		.word	1074741253
 709 0108 01410F40 		.word	1074741505
 710 010c 01420F40 		.word	1074741761
 711 0110 02430F40 		.word	1074742018
 712 0114 05440F40 		.word	1074742277
 713 0118 02450F40 		.word	1074742530
 714 011c 03600F40 		.word	1074749443
ARM GAS  C:\Users\casey\AppData\Local\Temp\ccLiVS15.s 			page 23


 715              		.text
 716              	.Letext0:
 717              		.file 2 "c:\\program files (x86)\\cypress\\psoc creator\\4.4\\psoc creator\\import\\gnu\\arm\\5.4.
 718              		.file 3 "Generated_Source\\PSoC4\\cytypes.h"
 719              		.file 4 "Generated_Source\\PSoC4\\CyLFClk.h"
 720              		.file 5 "Generated_Source\\PSoC4\\CyLib.h"