ARM GAS  C:\Users\casey\AppData\Local\Temp\ccvaaNdC.s 			page 1


   1              		.syntax unified
   2              		.cpu cortex-m0
   3              		.fpu softvfp
   4              		.eabi_attribute 20, 1
   5              		.eabi_attribute 21, 1
   6              		.eabi_attribute 23, 3
   7              		.eabi_attribute 24, 1
   8              		.eabi_attribute 25, 1
   9              		.eabi_attribute 26, 1
  10              		.eabi_attribute 30, 1
  11              		.eabi_attribute 34, 0
  12              		.eabi_attribute 18, 4
  13              		.thumb
  14              		.syntax unified
  15              		.file	"main.c"
  16              		.text
  17              	.Ltext0:
  18              		.cfi_sections	.debug_frame
  19              		.section	.text.Period_Reset_Handler,"ax",%progbits
  20              		.align	2
  21              		.global	Period_Reset_Handler
  22              		.code	16
  23              		.thumb_func
  24              		.type	Period_Reset_Handler, %function
  25              	Period_Reset_Handler:
  26              	.LFB35:
  27              		.file 1 "main.c"
   1:main.c        **** /* ========================================
   2:main.c        ****  *
   3:main.c        ****  * Copyright YOUR COMPANY, THE YEAR
   4:main.c        ****  * All Rights Reserved
   5:main.c        ****  * UNPUBLISHED, LICENSED SOFTWARE.
   6:main.c        ****  *
   7:main.c        ****  * CONFIDENTIAL AND PROPRIETARY INFORMATION
   8:main.c        ****  * WHICH IS THE PROPERTY OF your company.
   9:main.c        ****  *
  10:main.c        ****  * ========================================
  11:main.c        **** */
  12:main.c        **** 
  13:main.c        **** #include <math.h>
  14:main.c        **** #include <stdint.h>
  15:main.c        **** #include <stdlib.h>
  16:main.c        **** #include <stdio.h>
  17:main.c        **** #include "main.h"
  18:main.c        **** #include "cyapicallbacks.h"
  19:main.c        **** #include "Temp_CAN.h"
  20:main.c        **** #include "Temp_FSM.h"
  21:main.c        **** 
  22:main.c        **** // LED stuff
  23:main.c        **** uint8_t CAN_time_LED = 0;
  24:main.c        **** uint8_t ERROR_time_LED = 0;
  25:main.c        **** 
  26:main.c        **** // UART stuff
  27:main.c        **** char txData[TX_DATA_SIZE];
  28:main.c        **** 
  29:main.c        **** uint8 address = 0;
  30:main.c        **** 
ARM GAS  C:\Users\casey\AppData\Local\Temp\ccvaaNdC.s 			page 2


  31:main.c        **** CY_ISR(Period_Reset_Handler) {
  28              		.loc 1 31 0
  29              		.cfi_startproc
  30              		@ args = 0, pretend = 0, frame = 0
  31              		@ frame_needed = 0, uses_anonymous_args = 0
  32 0000 10B5     		push	{r4, lr}
  33              		.cfi_def_cfa_offset 8
  34              		.cfi_offset 4, -8
  35              		.cfi_offset 14, -4
  32:main.c        ****     CAN_time_LED++;
  36              		.loc 1 32 0
  37 0002 0A4A     		ldr	r2, .L4
  38 0004 1378     		ldrb	r3, [r2]
  39 0006 0133     		adds	r3, r3, #1
  40 0008 1370     		strb	r3, [r2]
  33:main.c        ****     ERROR_time_LED++;
  41              		.loc 1 33 0
  42 000a 5378     		ldrb	r3, [r2, #1]
  43 000c 0133     		adds	r3, r3, #1
  44 000e DBB2     		uxtb	r3, r3
  45 0010 5370     		strb	r3, [r2, #1]
  34:main.c        **** 
  35:main.c        ****     if(ERROR_time_LED >= 3) {
  46              		.loc 1 35 0
  47 0012 022B     		cmp	r3, #2
  48 0014 02D9     		bls	.L2
  36:main.c        ****         LED_ERR_Write(OFF);
  49              		.loc 1 36 0
  50 0016 0020     		movs	r0, #0
  51 0018 FFF7FEFF 		bl	LED_ERR_Write
  52              	.LVL0:
  53              	.L2:
  37:main.c        ****     }
  38:main.c        ****     if(CAN_time_LED >= 3){
  54              		.loc 1 38 0
  55 001c 034B     		ldr	r3, .L4
  56 001e 1B78     		ldrb	r3, [r3]
  57 0020 022B     		cmp	r3, #2
  58 0022 02D9     		bls	.L1
  39:main.c        ****         LED_CAN_Write(OFF);
  59              		.loc 1 39 0
  60 0024 0020     		movs	r0, #0
  61 0026 FFF7FEFF 		bl	LED_CAN_Write
  62              	.LVL1:
  63              	.L1:
  40:main.c        ****     }
  41:main.c        **** }
  64              		.loc 1 41 0
  65              		@ sp needed
  66 002a 10BD     		pop	{r4, pc}
  67              	.L5:
  68              		.align	2
  69              	.L4:
  70 002c 00000000 		.word	.LANCHOR0
  71              		.cfi_endproc
  72              	.LFE35:
  73              		.size	Period_Reset_Handler, .-Period_Reset_Handler
ARM GAS  C:\Users\casey\AppData\Local\Temp\ccvaaNdC.s 			page 3


  74              		.section	.text.Button_1_Handler,"ax",%progbits
  75              		.align	2
  76              		.global	Button_1_Handler
  77              		.code	16
  78              		.thumb_func
  79              		.type	Button_1_Handler, %function
  80              	Button_1_Handler:
  81              	.LFB36:
  42:main.c        **** 
  43:main.c        **** CY_ISR(Button_1_Handler) {
  82              		.loc 1 43 0
  83              		.cfi_startproc
  84              		@ args = 0, pretend = 0, frame = 0
  85              		@ frame_needed = 0, uses_anonymous_args = 0
  86 0000 10B5     		push	{r4, lr}
  87              		.cfi_def_cfa_offset 8
  88              		.cfi_offset 4, -8
  89              		.cfi_offset 14, -4
  44:main.c        ****     LED_DBG_1_Write(!LED_DBG_1_Read());
  90              		.loc 1 44 0
  91 0002 FFF7FEFF 		bl	LED_DBG_1_Read
  92              	.LVL2:
  93 0006 4342     		rsbs	r3, r0, #0
  94 0008 5841     		adcs	r0, r0, r3
  95 000a C0B2     		uxtb	r0, r0
  96 000c FFF7FEFF 		bl	LED_DBG_1_Write
  97              	.LVL3:
  45:main.c        **** }
  98              		.loc 1 45 0
  99              		@ sp needed
 100 0010 10BD     		pop	{r4, pc}
 101              		.cfi_endproc
 102              	.LFE36:
 103              		.size	Button_1_Handler, .-Button_1_Handler
 104 0012 C046     		.section	.text.DebugPrint,"ax",%progbits
 105              		.align	2
 106              		.global	DebugPrint
 107              		.code	16
 108              		.thumb_func
 109              		.type	DebugPrint, %function
 110              	DebugPrint:
 111              	.LFB39:
  46:main.c        **** 
  47:main.c        **** int main(void)
  48:main.c        **** { 
  49:main.c        ****     Initialize();
  50:main.c        ****     int err;
  51:main.c        ****     
  52:main.c        ****     for(;;)
  53:main.c        ****     {
  54:main.c        ****         switch(GetState()) {
  55:main.c        ****             case(UNINIT):
  56:main.c        ****                 SetStateTo(CHECK_CAN);
  57:main.c        ****                 break;
  58:main.c        ****             case(CHECK_CAN):
  59:main.c        ****                 CheckCAN();
  60:main.c        ****                 break;
ARM GAS  C:\Users\casey\AppData\Local\Temp\ccvaaNdC.s 			page 4


  61:main.c        ****             default:
  62:main.c        ****                 DisplayErrorCode(ERROR_INVALID_STATE);
  63:main.c        ****                 GotoUninitState();
  64:main.c        ****                 break;
  65:main.c        ****         }
  66:main.c        ****         
  67:main.c        ****         if (DBG_UART_SpiUartGetRxBufferSize()) {
  68:main.c        ****             DebugPrint(DBG_UART_UartGetByte());
  69:main.c        ****         }
  70:main.c        ****     }
  71:main.c        **** }
  72:main.c        **** 
  73:main.c        **** void Initialize(void) {
  74:main.c        ****     CyGlobalIntEnable; /* Enable global interrupts. LED arrays need this first */
  75:main.c        ****     
  76:main.c        ****     address = getSerialAddress();
  77:main.c        ****     
  78:main.c        ****     DBG_UART_Start();
  79:main.c        ****     sprintf(txData, "Dip Addr: %x \r\n", address);
  80:main.c        ****     Print(txData);
  81:main.c        ****     
  82:main.c        **** 
  83:main.c        ****     LED_DBG_1_Write(0);
  84:main.c        ****     
  85:main.c        ****     InitCAN(0x4, (int)address);
  86:main.c        ****     Timer_Period_Reset_Start();
  87:main.c        **** 
  88:main.c        ****     isr_Button_1_StartEx(Button_1_Handler);
  89:main.c        ****     isr_Period_Reset_StartEx(Period_Reset_Handler);
  90:main.c        **** }
  91:main.c        **** 
  92:main.c        **** void DebugPrint(char input) {
 112              		.loc 1 92 0
 113              		.cfi_startproc
 114              		@ args = 0, pretend = 0, frame = 0
 115              		@ frame_needed = 0, uses_anonymous_args = 0
 116              	.LVL4:
 117 0000 10B5     		push	{r4, lr}
 118              		.cfi_def_cfa_offset 8
 119              		.cfi_offset 4, -8
 120              		.cfi_offset 14, -4
  93:main.c        ****     switch(input) {
 121              		.loc 1 93 0
 122 0002 6628     		cmp	r0, #102
 123 0004 02D0     		beq	.L9
 124 0006 7828     		cmp	r0, #120
 125 0008 0CD0     		beq	.L10
 126 000a 11E0     		b	.L12
 127              	.L9:
  94:main.c        ****         case 'f':
  95:main.c        ****             sprintf(txData, "Mode: %x State:%x \r\n", GetMode(), GetState());
 128              		.loc 1 95 0
 129 000c FFF7FEFF 		bl	GetMode
 130              	.LVL5:
 131 0010 0400     		movs	r4, r0
 132 0012 FFF7FEFF 		bl	GetState
 133              	.LVL6:
ARM GAS  C:\Users\casey\AppData\Local\Temp\ccvaaNdC.s 			page 5


 134 0016 0300     		movs	r3, r0
 135 0018 2200     		movs	r2, r4
 136 001a 0A49     		ldr	r1, .L13
 137 001c 0A48     		ldr	r0, .L13+4
 138 001e FFF7FEFF 		bl	sprintf
 139              	.LVL7:
  96:main.c        ****             break;
 140              		.loc 1 96 0
 141 0022 0AE0     		b	.L11
 142              	.LVL8:
 143              	.L10:
  97:main.c        ****         case 'x':
  98:main.c        ****             sprintf(txData, "bruh\r\n");
 144              		.loc 1 98 0
 145 0024 0722     		movs	r2, #7
 146 0026 0949     		ldr	r1, .L13+8
 147 0028 0748     		ldr	r0, .L13+4
 148              	.LVL9:
 149 002a FFF7FEFF 		bl	memcpy
 150              	.LVL10:
  99:main.c        ****             break;
 151              		.loc 1 99 0
 152 002e 04E0     		b	.L11
 153              	.LVL11:
 154              	.L12:
 100:main.c        ****         default:
 101:main.c        ****             sprintf(txData, "what\r\n");
 155              		.loc 1 101 0
 156 0030 0722     		movs	r2, #7
 157 0032 0749     		ldr	r1, .L13+12
 158 0034 0448     		ldr	r0, .L13+4
 159              	.LVL12:
 160 0036 FFF7FEFF 		bl	memcpy
 161              	.LVL13:
 162              	.L11:
 102:main.c        ****             break;
 103:main.c        ****     }
 104:main.c        ****     Print(txData);
 163              		.loc 1 104 0
 164 003a 0348     		ldr	r0, .L13+4
 165 003c FFF7FEFF 		bl	DBG_UART_UartPutString
 166              	.LVL14:
 105:main.c        **** }
 167              		.loc 1 105 0
 168              		@ sp needed
 169 0040 10BD     		pop	{r4, pc}
 170              	.L14:
 171 0042 C046     		.align	2
 172              	.L13:
 173 0044 00000000 		.word	.LC1
 174 0048 00000000 		.word	txData
 175 004c 18000000 		.word	.LC4
 176 0050 20000000 		.word	.LC6
 177              		.cfi_endproc
 178              	.LFE39:
 179              		.size	DebugPrint, .-DebugPrint
 180              		.section	.text.getSerialAddress,"ax",%progbits
ARM GAS  C:\Users\casey\AppData\Local\Temp\ccvaaNdC.s 			page 6


 181              		.align	2
 182              		.global	getSerialAddress
 183              		.code	16
 184              		.thumb_func
 185              		.type	getSerialAddress, %function
 186              	getSerialAddress:
 187              	.LFB40:
 106:main.c        **** 
 107:main.c        **** int getSerialAddress() {
 188              		.loc 1 107 0
 189              		.cfi_startproc
 190              		@ args = 0, pretend = 0, frame = 0
 191              		@ frame_needed = 0, uses_anonymous_args = 0
 192 0000 10B5     		push	{r4, lr}
 193              		.cfi_def_cfa_offset 8
 194              		.cfi_offset 4, -8
 195              		.cfi_offset 14, -4
 196              	.LVL15:
 108:main.c        ****     int address = 0;
 109:main.c        ****     
 110:main.c        ****     if (DIP1_Read()==0) address += 1;
 197              		.loc 1 110 0
 198 0002 FFF7FEFF 		bl	DIP1_Read
 199              	.LVL16:
 200 0006 0028     		cmp	r0, #0
 201 0008 01D0     		beq	.L21
 108:main.c        ****     int address = 0;
 202              		.loc 1 108 0
 203 000a 0024     		movs	r4, #0
 204 000c 00E0     		b	.L16
 205              	.L21:
 206              		.loc 1 110 0
 207 000e 0124     		movs	r4, #1
 208              	.L16:
 209              	.LVL17:
 111:main.c        ****     if (DIP2_Read()==0) address += 2;
 210              		.loc 1 111 0
 211 0010 FFF7FEFF 		bl	DIP2_Read
 212              	.LVL18:
 213 0014 0028     		cmp	r0, #0
 214 0016 00D1     		bne	.L17
 215              		.loc 1 111 0 is_stmt 0 discriminator 1
 216 0018 0234     		adds	r4, r4, #2
 217              	.LVL19:
 218              	.L17:
 112:main.c        ****     if (DIP3_Read()==0) address += 4;
 219              		.loc 1 112 0 is_stmt 1
 220 001a FFF7FEFF 		bl	DIP3_Read
 221              	.LVL20:
 222 001e 0028     		cmp	r0, #0
 223 0020 00D1     		bne	.L18
 224              		.loc 1 112 0 is_stmt 0 discriminator 1
 225 0022 0434     		adds	r4, r4, #4
 226              	.LVL21:
 227              	.L18:
 113:main.c        ****     if (DIP4_Read()==0) address += 8;
 228              		.loc 1 113 0 is_stmt 1
ARM GAS  C:\Users\casey\AppData\Local\Temp\ccvaaNdC.s 			page 7


 229 0024 FFF7FEFF 		bl	DIP4_Read
 230              	.LVL22:
 231 0028 0028     		cmp	r0, #0
 232 002a 00D1     		bne	.L19
 233              		.loc 1 113 0 is_stmt 0 discriminator 1
 234 002c 0834     		adds	r4, r4, #8
 235              	.LVL23:
 236              	.L19:
 114:main.c        **** 
 115:main.c        ****     if (address == 0)
 237              		.loc 1 115 0 is_stmt 1
 238 002e 002C     		cmp	r4, #0
 239 0030 00D1     		bne	.L20
 116:main.c        ****         address = DEVICE_SERIAL_TELEM_LOCALIZATION;
 240              		.loc 1 116 0
 241 0032 0134     		adds	r4, r4, #1
 242              	.LVL24:
 243              	.L20:
 117:main.c        **** 
 118:main.c        ****     return address;
 119:main.c        **** }
 244              		.loc 1 119 0
 245 0034 2000     		movs	r0, r4
 246              		@ sp needed
 247              	.LVL25:
 248 0036 10BD     		pop	{r4, pc}
 249              		.cfi_endproc
 250              	.LFE40:
 251              		.size	getSerialAddress, .-getSerialAddress
 252              		.section	.text.Initialize,"ax",%progbits
 253              		.align	2
 254              		.global	Initialize
 255              		.code	16
 256              		.thumb_func
 257              		.type	Initialize, %function
 258              	Initialize:
 259              	.LFB38:
  73:main.c        ****     CyGlobalIntEnable; /* Enable global interrupts. LED arrays need this first */
 260              		.loc 1 73 0
 261              		.cfi_startproc
 262              		@ args = 0, pretend = 0, frame = 0
 263              		@ frame_needed = 0, uses_anonymous_args = 0
 264 0000 70B5     		push	{r4, r5, r6, lr}
 265              		.cfi_def_cfa_offset 16
 266              		.cfi_offset 4, -16
 267              		.cfi_offset 5, -12
 268              		.cfi_offset 6, -8
 269              		.cfi_offset 14, -4
  74:main.c        ****     
 270              		.loc 1 74 0
 271              		.syntax divided
 272              	@ 74 "main.c" 1
 273 0002 62B6     		CPSIE   i
 274              	@ 0 "" 2
  76:main.c        ****     
 275              		.loc 1 76 0
 276              		.thumb
ARM GAS  C:\Users\casey\AppData\Local\Temp\ccvaaNdC.s 			page 8


 277              		.syntax unified
 278 0004 FFF7FEFF 		bl	getSerialAddress
 279              	.LVL26:
 280 0008 0E4C     		ldr	r4, .L24
 281 000a A070     		strb	r0, [r4, #2]
  78:main.c        ****     sprintf(txData, "Dip Addr: %x \r\n", address);
 282              		.loc 1 78 0
 283 000c FFF7FEFF 		bl	DBG_UART_Start
 284              	.LVL27:
  79:main.c        ****     Print(txData);
 285              		.loc 1 79 0
 286 0010 A278     		ldrb	r2, [r4, #2]
 287 0012 0D4D     		ldr	r5, .L24+4
 288 0014 0D49     		ldr	r1, .L24+8
 289 0016 2800     		movs	r0, r5
 290 0018 FFF7FEFF 		bl	sprintf
 291              	.LVL28:
  80:main.c        ****     
 292              		.loc 1 80 0
 293 001c 2800     		movs	r0, r5
 294 001e FFF7FEFF 		bl	DBG_UART_UartPutString
 295              	.LVL29:
  83:main.c        ****     
 296              		.loc 1 83 0
 297 0022 0020     		movs	r0, #0
 298 0024 FFF7FEFF 		bl	LED_DBG_1_Write
 299              	.LVL30:
  85:main.c        ****     Timer_Period_Reset_Start();
 300              		.loc 1 85 0
 301 0028 A178     		ldrb	r1, [r4, #2]
 302 002a 0420     		movs	r0, #4
 303 002c FFF7FEFF 		bl	InitCAN
 304              	.LVL31:
  86:main.c        **** 
 305              		.loc 1 86 0
 306 0030 FFF7FEFF 		bl	Timer_Period_Reset_Start
 307              	.LVL32:
  88:main.c        ****     isr_Period_Reset_StartEx(Period_Reset_Handler);
 308              		.loc 1 88 0
 309 0034 0648     		ldr	r0, .L24+12
 310 0036 FFF7FEFF 		bl	isr_Button_1_StartEx
 311              	.LVL33:
  89:main.c        **** }
 312              		.loc 1 89 0
 313 003a 0648     		ldr	r0, .L24+16
 314 003c FFF7FEFF 		bl	isr_Period_Reset_StartEx
 315              	.LVL34:
  90:main.c        **** 
 316              		.loc 1 90 0
 317              		@ sp needed
 318 0040 70BD     		pop	{r4, r5, r6, pc}
 319              	.L25:
 320 0042 C046     		.align	2
 321              	.L24:
 322 0044 00000000 		.word	.LANCHOR0
 323 0048 00000000 		.word	txData
 324 004c 28000000 		.word	.LC9
ARM GAS  C:\Users\casey\AppData\Local\Temp\ccvaaNdC.s 			page 9


 325 0050 00000000 		.word	Button_1_Handler
 326 0054 00000000 		.word	Period_Reset_Handler
 327              		.cfi_endproc
 328              	.LFE38:
 329              		.size	Initialize, .-Initialize
 330              		.section	.text.ReadCAN,"ax",%progbits
 331              		.align	2
 332              		.global	ReadCAN
 333              		.code	16
 334              		.thumb_func
 335              		.type	ReadCAN, %function
 336              	ReadCAN:
 337              	.LFB41:
 120:main.c        **** 
 121:main.c        **** /*
 122:main.c        **** Returns the Packet ID or 0xFF if there is no Packet
 123:main.c        **** This pulls from the CAN lib's FIFO
 124:main.c        **** Also Triggers LED
 125:main.c        **** */
 126:main.c        **** uint16_t ReadCAN(CANPacket *receivedPacket){
 338              		.loc 1 126 0
 339              		.cfi_startproc
 340              		@ args = 0, pretend = 0, frame = 8
 341              		@ frame_needed = 0, uses_anonymous_args = 0
 342              	.LVL35:
 343 0000 10B5     		push	{r4, lr}
 344              		.cfi_def_cfa_offset 8
 345              		.cfi_offset 4, -8
 346              		.cfi_offset 14, -4
 347 0002 82B0     		sub	sp, sp, #8
 348              		.cfi_def_cfa_offset 16
 349 0004 0400     		movs	r4, r0
 127:main.c        ****     volatile int error = PollAndReceiveCANPacket(receivedPacket);
 350              		.loc 1 127 0
 351 0006 FFF7FEFF 		bl	PollAndReceiveCANPacket
 352              	.LVL36:
 353 000a 0190     		str	r0, [sp, #4]
 128:main.c        ****     if(!error){
 354              		.loc 1 128 0
 355 000c 019B     		ldr	r3, [sp, #4]
 356 000e 002B     		cmp	r3, #0
 357 0010 07D1     		bne	.L28
 129:main.c        ****         LED_CAN_Write(ON);
 358              		.loc 1 129 0
 359 0012 0120     		movs	r0, #1
 360 0014 FFF7FEFF 		bl	LED_CAN_Write
 361              	.LVL37:
 130:main.c        ****         CAN_time_LED = 0;
 362              		.loc 1 130 0
 363 0018 0022     		movs	r2, #0
 364 001a 034B     		ldr	r3, .L29
 365 001c 1A70     		strb	r2, [r3]
 131:main.c        ****         return receivedPacket->data[0];
 366              		.loc 1 131 0
 367 001e E078     		ldrb	r0, [r4, #3]
 368 0020 00E0     		b	.L27
 369              	.L28:
ARM GAS  C:\Users\casey\AppData\Local\Temp\ccvaaNdC.s 			page 10


 132:main.c        ****     }
 133:main.c        ****     return NO_NEW_CAN_PACKET; //Means no Packet
 370              		.loc 1 133 0
 371 0022 0248     		ldr	r0, .L29+4
 372              	.L27:
 134:main.c        **** }
 373              		.loc 1 134 0
 374 0024 02B0     		add	sp, sp, #8
 375              		@ sp needed
 376              	.LVL38:
 377 0026 10BD     		pop	{r4, pc}
 378              	.L30:
 379              		.align	2
 380              	.L29:
 381 0028 00000000 		.word	.LANCHOR0
 382 002c FFFF0000 		.word	65535
 383              		.cfi_endproc
 384              	.LFE41:
 385              		.size	ReadCAN, .-ReadCAN
 386              		.section	.text.DisplayErrorCode,"ax",%progbits
 387              		.align	2
 388              		.global	DisplayErrorCode
 389              		.code	16
 390              		.thumb_func
 391              		.type	DisplayErrorCode, %function
 392              	DisplayErrorCode:
 393              	.LFB42:
 135:main.c        **** 
 136:main.c        **** void DisplayErrorCode(uint8_t code) {    
 394              		.loc 1 136 0
 395              		.cfi_startproc
 396              		@ args = 0, pretend = 0, frame = 0
 397              		@ frame_needed = 0, uses_anonymous_args = 0
 398              	.LVL39:
 399 0000 10B5     		push	{r4, lr}
 400              		.cfi_def_cfa_offset 8
 401              		.cfi_offset 4, -8
 402              		.cfi_offset 14, -4
 403 0002 0400     		movs	r4, r0
 137:main.c        ****     ERROR_time_LED = 0;
 404              		.loc 1 137 0
 405 0004 0022     		movs	r2, #0
 406 0006 0C4B     		ldr	r3, .L34
 407 0008 5A70     		strb	r2, [r3, #1]
 138:main.c        ****     LED_ERR_Write(ON);
 408              		.loc 1 138 0
 409 000a 0120     		movs	r0, #1
 410              	.LVL40:
 411 000c FFF7FEFF 		bl	LED_ERR_Write
 412              	.LVL41:
 139:main.c        ****     
 140:main.c        ****     Print("Error ");
 413              		.loc 1 140 0
 414 0010 0A48     		ldr	r0, .L34+4
 415 0012 FFF7FEFF 		bl	DBG_UART_UartPutString
 416              	.LVL42:
 141:main.c        ****     PrintInt(code);
ARM GAS  C:\Users\casey\AppData\Local\Temp\ccvaaNdC.s 			page 11


 417              		.loc 1 141 0
 418 0016 0A22     		movs	r2, #10
 419 0018 0949     		ldr	r1, .L34+8
 420 001a 2000     		movs	r0, r4
 421 001c FFF7FEFF 		bl	itoa
 422              	.LVL43:
 423 0020 FFF7FEFF 		bl	DBG_UART_UartPutString
 424              	.LVL44:
 142:main.c        ****     Print("\r\n");
 425              		.loc 1 142 0
 426 0024 0748     		ldr	r0, .L34+12
 427 0026 FFF7FEFF 		bl	DBG_UART_UartPutString
 428              	.LVL45:
 143:main.c        **** 
 144:main.c        ****     switch(code)
 429              		.loc 1 144 0
 430 002a 012C     		cmp	r4, #1
 431 002c 02D1     		bne	.L31
 145:main.c        ****     {   
 146:main.c        ****         //case0: CAN Packet ERROR
 147:main.c        ****         case 1://Mode Error
 148:main.c        ****             LED_DBG_1_Write(ON);
 432              		.loc 1 148 0
 433 002e 0120     		movs	r0, #1
 434 0030 FFF7FEFF 		bl	LED_DBG_1_Write
 435              	.LVL46:
 436              	.L31:
 149:main.c        ****             break;
 150:main.c        ****         default:
 151:main.c        ****             //some error
 152:main.c        ****             break;
 153:main.c        ****     }
 154:main.c        **** 
 155:main.c        **** }
 437              		.loc 1 155 0
 438              		@ sp needed
 439 0034 10BD     		pop	{r4, pc}
 440              	.L35:
 441 0036 C046     		.align	2
 442              	.L34:
 443 0038 00000000 		.word	.LANCHOR0
 444 003c 38000000 		.word	.LC16
 445 0040 00000000 		.word	txData
 446 0044 40000000 		.word	.LC19
 447              		.cfi_endproc
 448              	.LFE42:
 449              		.size	DisplayErrorCode, .-DisplayErrorCode
 450              		.section	.text.main,"ax",%progbits
 451              		.align	2
 452              		.global	main
 453              		.code	16
 454              		.thumb_func
 455              		.type	main, %function
 456              	main:
 457              	.LFB37:
  48:main.c        ****     Initialize();
 458              		.loc 1 48 0
ARM GAS  C:\Users\casey\AppData\Local\Temp\ccvaaNdC.s 			page 12


 459              		.cfi_startproc
 460              		@ Volatile: function does not return.
 461              		@ args = 0, pretend = 0, frame = 0
 462              		@ frame_needed = 0, uses_anonymous_args = 0
 463 0000 10B5     		push	{r4, lr}
 464              		.cfi_def_cfa_offset 8
 465              		.cfi_offset 4, -8
 466              		.cfi_offset 14, -4
  49:main.c        ****     int err;
 467              		.loc 1 49 0
 468 0002 FFF7FEFF 		bl	Initialize
 469              	.LVL47:
 470              	.L41:
  54:main.c        ****             case(UNINIT):
 471              		.loc 1 54 0
 472 0006 FFF7FEFF 		bl	GetState
 473              	.LVL48:
 474 000a 0228     		cmp	r0, #2
 475 000c 05D0     		beq	.L38
 476 000e FF28     		cmp	r0, #255
 477 0010 06D1     		bne	.L43
  56:main.c        ****                 break;
 478              		.loc 1 56 0
 479 0012 FD38     		subs	r0, r0, #253
 480 0014 FFF7FEFF 		bl	SetStateTo
 481              	.LVL49:
  57:main.c        ****             case(CHECK_CAN):
 482              		.loc 1 57 0
 483 0018 07E0     		b	.L40
 484              	.L38:
  59:main.c        ****                 break;
 485              		.loc 1 59 0
 486 001a FFF7FEFF 		bl	CheckCAN
 487              	.LVL50:
  60:main.c        ****             default:
 488              		.loc 1 60 0
 489 001e 04E0     		b	.L40
 490              	.L43:
  62:main.c        ****                 GotoUninitState();
 491              		.loc 1 62 0
 492 0020 0220     		movs	r0, #2
 493 0022 FFF7FEFF 		bl	DisplayErrorCode
 494              	.LVL51:
  63:main.c        ****                 break;
 495              		.loc 1 63 0
 496 0026 FFF7FEFF 		bl	GotoUninitState
 497              	.LVL52:
 498              	.L40:
  67:main.c        ****             DebugPrint(DBG_UART_UartGetByte());
 499              		.loc 1 67 0
 500 002a FFF7FEFF 		bl	DBG_UART_SpiUartGetRxBufferSize
 501              	.LVL53:
 502 002e 0028     		cmp	r0, #0
 503 0030 E9D0     		beq	.L41
  68:main.c        ****         }
 504              		.loc 1 68 0
 505 0032 FFF7FEFF 		bl	DBG_UART_UartGetByte
ARM GAS  C:\Users\casey\AppData\Local\Temp\ccvaaNdC.s 			page 13


 506              	.LVL54:
 507 0036 C0B2     		uxtb	r0, r0
 508 0038 FFF7FEFF 		bl	DebugPrint
 509              	.LVL55:
 510 003c E3E7     		b	.L41
 511              		.cfi_endproc
 512              	.LFE37:
 513              		.size	main, .-main
 514              		.global	address
 515              		.comm	txData,100,4
 516              		.global	ERROR_time_LED
 517              		.global	CAN_time_LED
 518 003e C046     		.section	.rodata.str1.4,"aMS",%progbits,1
 519              		.align	2
 520              	.LC1:
 521 0000 4D6F6465 		.ascii	"Mode: %x State:%x \015\012\000"
 521      3A202578 
 521      20537461 
 521      74653A25 
 521      78200D0A 
 522 0015 000000   		.space	3
 523              	.LC4:
 524 0018 62727568 		.ascii	"bruh\015\012\000"
 524      0D0A00
 525 001f 00       		.space	1
 526              	.LC6:
 527 0020 77686174 		.ascii	"what\015\012\000"
 527      0D0A00
 528 0027 00       		.space	1
 529              	.LC9:
 530 0028 44697020 		.ascii	"Dip Addr: %x \015\012\000"
 530      41646472 
 530      3A202578 
 530      200D0A00 
 531              	.LC16:
 532 0038 4572726F 		.ascii	"Error \000"
 532      722000
 533 003f 00       		.space	1
 534              	.LC19:
 535 0040 0D0A00   		.ascii	"\015\012\000"
 536              		.bss
 537              		.set	.LANCHOR0,. + 0
 538              		.type	CAN_time_LED, %object
 539              		.size	CAN_time_LED, 1
 540              	CAN_time_LED:
 541 0000 00       		.space	1
 542              		.type	ERROR_time_LED, %object
 543              		.size	ERROR_time_LED, 1
 544              	ERROR_time_LED:
 545 0001 00       		.space	1
 546              		.type	address, %object
 547              		.size	address, 1
 548              	address:
 549 0002 00       		.space	1
 550              		.text
 551              	.Letext0:
 552              		.file 2 "c:\\program files (x86)\\cypress\\psoc creator\\4.4\\psoc creator\\import\\gnu\\arm\\5.4.
ARM GAS  C:\Users\casey\AppData\Local\Temp\ccvaaNdC.s 			page 14


 553              		.file 3 "c:\\program files (x86)\\cypress\\psoc creator\\4.4\\psoc creator\\import\\gnu\\arm\\5.4.
 554              		.file 4 "HindsightCAN/CANPacket.h"
 555              		.file 5 "Generated_Source\\PSoC4/cytypes.h"
 556              		.file 6 "Generated_Source\\PSoC4/LED_ERR.h"
 557              		.file 7 "Generated_Source\\PSoC4/LED_CAN.h"
 558              		.file 8 "Generated_Source\\PSoC4/LED_DBG_1.h"
 559              		.file 9 "Temp_FSM.h"
 560              		.file 10 "c:\\program files (x86)\\cypress\\psoc creator\\4.4\\psoc creator\\import\\gnu\\arm\\5.4
 561              		.file 11 "Generated_Source\\PSoC4/DBG_UART_SPI_UART.h"
 562              		.file 12 "Generated_Source\\PSoC4/DIP1.h"
 563              		.file 13 "Generated_Source\\PSoC4/DIP2.h"
 564              		.file 14 "Generated_Source\\PSoC4/DIP3.h"
 565              		.file 15 "Generated_Source\\PSoC4/DIP4.h"
 566              		.file 16 "Generated_Source\\PSoC4/DBG_UART.h"
 567              		.file 17 "HindsightCAN/Port.h"
 568              		.file 18 "Generated_Source\\PSoC4/Timer_Period_Reset.h"
 569              		.file 19 "Generated_Source\\PSoC4/isr_Button_1.h"
 570              		.file 20 "Generated_Source\\PSoC4/isr_Period_Reset.h"
 571              		.file 21 "c:\\program files (x86)\\cypress\\psoc creator\\4.4\\psoc creator\\import\\gnu\\arm\\5.4
 572              		.file 22 "Temp_CAN.h"