ARM GAS  C:\Users\casey\AppData\Local\Temp\ccvU0TBN.s 			page 1


   1              		.syntax unified
   2              		.cpu cortex-m0
   3              		.fpu softvfp
   4              		.eabi_attribute 20, 1
   5              		.eabi_attribute 21, 1
   6              		.eabi_attribute 23, 3
   7              		.eabi_attribute 24, 1
   8              		.eabi_attribute 25, 1
   9              		.eabi_attribute 26, 1
  10              		.eabi_attribute 30, 1
  11              		.eabi_attribute 34, 0
  12              		.eabi_attribute 18, 4
  13              		.thumb
  14              		.syntax unified
  15              		.file	"Temp_CAN.c"
  16              		.text
  17              	.Ltext0:
  18              		.cfi_sections	.debug_frame
  19              		.section	.text.CheckCAN,"ax",%progbits
  20              		.align	2
  21              		.global	CheckCAN
  22              		.code	16
  23              		.thumb_func
  24              		.type	CheckCAN, %function
  25              	CheckCAN:
  26              	.LFB35:
  27              		.file 1 "Temp_CAN.c"
   1:Temp_CAN.c    **** /* ========================================
   2:Temp_CAN.c    ****  *
   3:Temp_CAN.c    ****  * Copyright YOUR COMPANY, THE YEAR
   4:Temp_CAN.c    ****  * All Rights Reserved
   5:Temp_CAN.c    ****  * UNPUBLISHED, LICENSED SOFTWARE.
   6:Temp_CAN.c    ****  *
   7:Temp_CAN.c    ****  * CONFIDENTIAL AND PROPRIETARY INFORMATION
   8:Temp_CAN.c    ****  * WHICH IS THE PROPERTY OF your company.
   9:Temp_CAN.c    ****  *
  10:Temp_CAN.c    ****  * ========================================
  11:Temp_CAN.c    **** */
  12:Temp_CAN.c    **** 
  13:Temp_CAN.c    **** #include <stdio.h>
  14:Temp_CAN.c    **** #include "main.h"
  15:Temp_CAN.c    **** #include "Temp_CAN.h"
  16:Temp_CAN.c    **** #include "Temp_FSM.h"
  17:Temp_CAN.c    **** #include "HindsightCAN/CANLibrary.h"
  18:Temp_CAN.c    **** 
  19:Temp_CAN.c    **** CANPacket can_recieve;
  20:Temp_CAN.c    **** CANPacket can_send;
  21:Temp_CAN.c    **** 
  22:Temp_CAN.c    **** extern char txData[TX_DATA_SIZE];
  23:Temp_CAN.c    **** extern uint8 address;
  24:Temp_CAN.c    **** 
  25:Temp_CAN.c    **** //Reads from CAN FIFO and changes the state and mode accordingly
  26:Temp_CAN.c    **** int CheckCAN() {
  28              		.loc 1 26 0
  29              		.cfi_startproc
  30              		@ args = 0, pretend = 0, frame = 0
  31              		@ frame_needed = 0, uses_anonymous_args = 0
ARM GAS  C:\Users\casey\AppData\Local\Temp\ccvU0TBN.s 			page 2


  32 0000 F0B5     		push	{r4, r5, r6, r7, lr}
  33              		.cfi_def_cfa_offset 20
  34              		.cfi_offset 4, -20
  35              		.cfi_offset 5, -16
  36              		.cfi_offset 6, -12
  37              		.cfi_offset 7, -8
  38              		.cfi_offset 14, -4
  39 0002 83B0     		sub	sp, sp, #12
  40              		.cfi_def_cfa_offset 32
  27:Temp_CAN.c    ****     uint16_t packageID = ReadCAN(&can_recieve);
  41              		.loc 1 27 0
  42 0004 324D     		ldr	r5, .L15
  43 0006 2800     		movs	r0, r5
  44 0008 FFF7FEFF 		bl	ReadCAN
  45              	.LVL0:
  46 000c 0400     		movs	r4, r0
  47              	.LVL1:
  28:Temp_CAN.c    ****     uint8_t serial = GetDeviceSerialNumber(&can_recieve);
  48              		.loc 1 28 0
  49 000e 2800     		movs	r0, r5
  50              	.LVL2:
  51 0010 FFF7FEFF 		bl	GetDeviceSerialNumber
  52              	.LVL3:
  29:Temp_CAN.c    ****     uint8_t sender_DG = GetSenderDeviceGroupCode(&can_recieve);
  53              		.loc 1 29 0
  54 0014 2800     		movs	r0, r5
  55 0016 FFF7FEFF 		bl	GetSenderDeviceGroupCode
  56              	.LVL4:
  57 001a 0600     		movs	r6, r0
  58              	.LVL5:
  30:Temp_CAN.c    ****     uint8_t sender_SN = GetSenderDeviceSerialNumber(&can_recieve);
  59              		.loc 1 30 0
  60 001c 2800     		movs	r0, r5
  61 001e FFF7FEFF 		bl	GetSenderDeviceSerialNumber
  62              	.LVL6:
  63 0022 0500     		movs	r5, r0
  64              	.LVL7:
  31:Temp_CAN.c    ****     uint8_t mode;
  32:Temp_CAN.c    ****     int32_t data = 0;
  33:Temp_CAN.c    ****     int err;
  34:Temp_CAN.c    ****     
  35:Temp_CAN.c    ****     switch(packageID){
  65              		.loc 1 35 0
  66 0024 F02C     		cmp	r4, #240
  67 0026 1DD0     		beq	.L3
  68 0028 F52C     		cmp	r4, #245
  69 002a 22D0     		beq	.L4
  70 002c 002C     		cmp	r4, #0
  71 002e 43D1     		bne	.L14
  36:Temp_CAN.c    ****         case(ID_MOTOR_UNIT_MODE_SEL):
  37:Temp_CAN.c    ****             mode = can_recieve.data[1];
  72              		.loc 1 37 0
  73 0030 274B     		ldr	r3, .L15
  74 0032 1B79     		ldrb	r3, [r3, #4]
  75              	.LVL8:
  38:Temp_CAN.c    ****             
  39:Temp_CAN.c    ****             if(mode == MODE1) {
ARM GAS  C:\Users\casey\AppData\Local\Temp\ccvU0TBN.s 			page 3


  76              		.loc 1 39 0
  77 0034 002B     		cmp	r3, #0
  78 0036 07D1     		bne	.L6
  40:Temp_CAN.c    ****                 SetModeTo(MODE1);
  79              		.loc 1 40 0
  80 0038 0020     		movs	r0, #0
  81 003a FFF7FEFF 		bl	SetModeTo
  82              	.LVL9:
  41:Temp_CAN.c    ****                 SetStateTo(CHECK_CAN);
  83              		.loc 1 41 0
  84 003e 0220     		movs	r0, #2
  85 0040 FFF7FEFF 		bl	SetStateTo
  86              	.LVL10:
  42:Temp_CAN.c    ****             } else if (mode == MODE2) {
  43:Temp_CAN.c    ****                 SetModeTo(MODE2);
  44:Temp_CAN.c    ****                 SetStateTo(CHECK_CAN);
  45:Temp_CAN.c    ****             } else {
  46:Temp_CAN.c    ****                 GotoUninitState();
  47:Temp_CAN.c    ****             }
  48:Temp_CAN.c    ****             break;
  49:Temp_CAN.c    ****             
  50:Temp_CAN.c    ****         // Common Packets 
  51:Temp_CAN.c    ****         case(ID_ESTOP):
  52:Temp_CAN.c    ****             Print("\r\n\r\n\r\nSTOP\r\n\r\n\r\n");
  53:Temp_CAN.c    ****             GotoUninitState();
  54:Temp_CAN.c    ****             break;
  55:Temp_CAN.c    ****         
  56:Temp_CAN.c    ****         case(ID_TELEMETRY_PULL):            
  57:Temp_CAN.c    ****             switch(DecodeTelemetryType(&can_recieve))
  58:Temp_CAN.c    ****             {
  59:Temp_CAN.c    ****                 // USE CONSTANTS FOR CASES
  60:Temp_CAN.c    ****                 case(0):
  61:Temp_CAN.c    ****                     data = 1;
  62:Temp_CAN.c    ****                 default:
  63:Temp_CAN.c    ****                     Print("Cannot Send That Data Type!\n\r");
  64:Temp_CAN.c    ****             }   
  65:Temp_CAN.c    ****             
  66:Temp_CAN.c    ****             // Assemble and send packet
  67:Temp_CAN.c    ****             AssembleTelemetryReportPacket(&can_send, sender_DG, sender_SN, DecodeTelemetryType(&can
  68:Temp_CAN.c    ****             if (SendCANPacket(&can_send)) {
  69:Temp_CAN.c    ****                 DisplayErrorCode(0);
  70:Temp_CAN.c    ****             }
  71:Temp_CAN.c    ****             SetStateTo(CHECK_CAN);
  72:Temp_CAN.c    ****             break;
  73:Temp_CAN.c    ****             
  74:Temp_CAN.c    ****         default://for 0xFF/no packets or Non recognized Packets
  75:Temp_CAN.c    ****             
  76:Temp_CAN.c    ****             //recieved Packet with Non Valid ID
  77:Temp_CAN.c    ****             if(packageID != NO_NEW_CAN_PACKET) {
  78:Temp_CAN.c    ****                 DisplayErrorCode(ERROR_INVALID_PACKET);
  79:Temp_CAN.c    ****                 return 1;
  80:Temp_CAN.c    ****             }
  81:Temp_CAN.c    ****             break;
  82:Temp_CAN.c    ****     }
  83:Temp_CAN.c    ****     
  84:Temp_CAN.c    ****     return 0;
  87              		.loc 1 84 0
ARM GAS  C:\Users\casey\AppData\Local\Temp\ccvU0TBN.s 			page 4


  88 0044 0020     		movs	r0, #0
  89 0046 40E0     		b	.L7
  90              	.LVL11:
  91              	.L6:
  42:Temp_CAN.c    ****             } else if (mode == MODE2) {
  92              		.loc 1 42 0
  93 0048 012B     		cmp	r3, #1
  94 004a 07D1     		bne	.L8
  43:Temp_CAN.c    ****                 SetStateTo(CHECK_CAN);
  95              		.loc 1 43 0
  96 004c 0120     		movs	r0, #1
  97 004e FFF7FEFF 		bl	SetModeTo
  98              	.LVL12:
  44:Temp_CAN.c    ****             } else {
  99              		.loc 1 44 0
 100 0052 0220     		movs	r0, #2
 101 0054 FFF7FEFF 		bl	SetStateTo
 102              	.LVL13:
 103              		.loc 1 84 0
 104 0058 0020     		movs	r0, #0
 105 005a 36E0     		b	.L7
 106              	.LVL14:
 107              	.L8:
  46:Temp_CAN.c    ****             }
 108              		.loc 1 46 0
 109 005c FFF7FEFF 		bl	GotoUninitState
 110              	.LVL15:
 111              		.loc 1 84 0
 112 0060 0020     		movs	r0, #0
 113 0062 32E0     		b	.L7
 114              	.L3:
  52:Temp_CAN.c    ****             GotoUninitState();
 115              		.loc 1 52 0
 116 0064 1B48     		ldr	r0, .L15+4
 117 0066 FFF7FEFF 		bl	DBG_UART_UartPutString
 118              	.LVL16:
  53:Temp_CAN.c    ****             break;
 119              		.loc 1 53 0
 120 006a FFF7FEFF 		bl	GotoUninitState
 121              	.LVL17:
 122              		.loc 1 84 0
 123 006e 0020     		movs	r0, #0
  54:Temp_CAN.c    ****         
 124              		.loc 1 54 0
 125 0070 2BE0     		b	.L7
 126              	.L4:
  57:Temp_CAN.c    ****             {
 127              		.loc 1 57 0
 128 0072 1748     		ldr	r0, .L15
 129 0074 FFF7FEFF 		bl	DecodeTelemetryType
 130              	.LVL18:
 131 0078 0028     		cmp	r0, #0
 132 007a 01D0     		beq	.L12
  32:Temp_CAN.c    ****     int err;
 133              		.loc 1 32 0
 134 007c 0027     		movs	r7, #0
 135 007e 00E0     		b	.L10
ARM GAS  C:\Users\casey\AppData\Local\Temp\ccvU0TBN.s 			page 5


 136              	.L12:
  61:Temp_CAN.c    ****                 default:
 137              		.loc 1 61 0
 138 0080 0127     		movs	r7, #1
 139              	.L10:
 140              	.LVL19:
  63:Temp_CAN.c    ****             }   
 141              		.loc 1 63 0
 142 0082 1548     		ldr	r0, .L15+8
 143 0084 FFF7FEFF 		bl	DBG_UART_UartPutString
 144              	.LVL20:
  67:Temp_CAN.c    ****             if (SendCANPacket(&can_send)) {
 145              		.loc 1 67 0
 146 0088 1148     		ldr	r0, .L15
 147 008a FFF7FEFF 		bl	DecodeTelemetryType
 148              	.LVL21:
 149 008e 0300     		movs	r3, r0
 150 0090 124C     		ldr	r4, .L15+12
 151              	.LVL22:
 152 0092 0097     		str	r7, [sp]
 153 0094 2A00     		movs	r2, r5
 154 0096 3100     		movs	r1, r6
 155 0098 2000     		movs	r0, r4
 156 009a FFF7FEFF 		bl	AssembleTelemetryReportPacket
 157              	.LVL23:
  68:Temp_CAN.c    ****                 DisplayErrorCode(0);
 158              		.loc 1 68 0
 159 009e 2000     		movs	r0, r4
 160 00a0 FFF7FEFF 		bl	SendCANPacket
 161              	.LVL24:
 162 00a4 0028     		cmp	r0, #0
 163 00a6 02D0     		beq	.L11
  69:Temp_CAN.c    ****             }
 164              		.loc 1 69 0
 165 00a8 0020     		movs	r0, #0
 166 00aa FFF7FEFF 		bl	DisplayErrorCode
 167              	.LVL25:
 168              	.L11:
  71:Temp_CAN.c    ****             break;
 169              		.loc 1 71 0
 170 00ae 0220     		movs	r0, #2
 171 00b0 FFF7FEFF 		bl	SetStateTo
 172              	.LVL26:
 173              		.loc 1 84 0
 174 00b4 0020     		movs	r0, #0
  72:Temp_CAN.c    ****             
 175              		.loc 1 72 0
 176 00b6 08E0     		b	.L7
 177              	.LVL27:
 178              	.L14:
  77:Temp_CAN.c    ****                 DisplayErrorCode(ERROR_INVALID_PACKET);
 179              		.loc 1 77 0
 180 00b8 094B     		ldr	r3, .L15+16
 181 00ba 9C42     		cmp	r4, r3
 182 00bc 04D0     		beq	.L13
  78:Temp_CAN.c    ****                 return 1;
 183              		.loc 1 78 0
ARM GAS  C:\Users\casey\AppData\Local\Temp\ccvU0TBN.s 			page 6


 184 00be 0020     		movs	r0, #0
 185 00c0 FFF7FEFF 		bl	DisplayErrorCode
 186              	.LVL28:
  79:Temp_CAN.c    ****             }
 187              		.loc 1 79 0
 188 00c4 0120     		movs	r0, #1
 189 00c6 00E0     		b	.L7
 190              	.L13:
 191              		.loc 1 84 0
 192 00c8 0020     		movs	r0, #0
 193              	.LVL29:
 194              	.L7:
  85:Temp_CAN.c    **** }
 195              		.loc 1 85 0
 196 00ca 03B0     		add	sp, sp, #12
 197              		@ sp needed
 198              	.LVL30:
 199              	.LVL31:
 200 00cc F0BD     		pop	{r4, r5, r6, r7, pc}
 201              	.L16:
 202 00ce C046     		.align	2
 203              	.L15:
 204 00d0 00000000 		.word	can_recieve
 205 00d4 00000000 		.word	.LC1
 206 00d8 14000000 		.word	.LC3
 207 00dc 00000000 		.word	can_send
 208 00e0 FFFF0000 		.word	65535
 209              		.cfi_endproc
 210              	.LFE35:
 211              		.size	CheckCAN, .-CheckCAN
 212              		.section	.text.PrintCanPacket,"ax",%progbits
 213              		.align	2
 214              		.global	PrintCanPacket
 215              		.code	16
 216              		.thumb_func
 217              		.type	PrintCanPacket, %function
 218              	PrintCanPacket:
 219              	.LFB36:
  86:Temp_CAN.c    **** 
  87:Temp_CAN.c    **** void PrintCanPacket(CANPacket packet){
 220              		.loc 1 87 0
 221              		.cfi_startproc
 222              		@ args = 0, pretend = 0, frame = 16
 223              		@ frame_needed = 0, uses_anonymous_args = 0
 224 0000 30B5     		push	{r4, r5, lr}
 225              		.cfi_def_cfa_offset 12
 226              		.cfi_offset 4, -12
 227              		.cfi_offset 5, -8
 228              		.cfi_offset 14, -4
 229 0002 87B0     		sub	sp, sp, #28
 230              		.cfi_def_cfa_offset 40
 231 0004 0390     		str	r0, [sp, #12]
 232 0006 0491     		str	r1, [sp, #16]
 233 0008 0592     		str	r2, [sp, #20]
 234              	.LVL32:
 235              	.LBB2:
  88:Temp_CAN.c    ****     for(int i = 0; i < packet.dlc; i++ ) {
ARM GAS  C:\Users\casey\AppData\Local\Temp\ccvU0TBN.s 			page 7


 236              		.loc 1 88 0
 237 000a 0023     		movs	r3, #0
 238 000c 0EE0     		b	.L18
 239              	.LVL33:
 240              	.L19:
  89:Temp_CAN.c    ****         sprintf(txData,"Byte%d %x   ", i+1, packet.data[i]);
 241              		.loc 1 89 0 discriminator 3
 242 000e 5C1C     		adds	r4, r3, #1
 243 0010 03AA     		add	r2, sp, #12
 244 0012 9446     		mov	ip, r2
 245 0014 6344     		add	r3, r3, ip
 246              	.LVL34:
 247 0016 DB78     		ldrb	r3, [r3, #3]
 248 0018 104D     		ldr	r5, .L20
 249 001a 2200     		movs	r2, r4
 250 001c 1049     		ldr	r1, .L20+4
 251 001e 2800     		movs	r0, r5
 252 0020 FFF7FEFF 		bl	sprintf
 253              	.LVL35:
  90:Temp_CAN.c    ****         Print(txData);
 254              		.loc 1 90 0 discriminator 3
 255 0024 2800     		movs	r0, r5
 256 0026 FFF7FEFF 		bl	DBG_UART_UartPutString
 257              	.LVL36:
  88:Temp_CAN.c    ****     for(int i = 0; i < packet.dlc; i++ ) {
 258              		.loc 1 88 0 discriminator 3
 259 002a 2300     		movs	r3, r4
 260              	.LVL37:
 261              	.L18:
  88:Temp_CAN.c    ****     for(int i = 0; i < packet.dlc; i++ ) {
 262              		.loc 1 88 0 is_stmt 0 discriminator 1
 263 002c 03AA     		add	r2, sp, #12
 264 002e 9278     		ldrb	r2, [r2, #2]
 265 0030 9342     		cmp	r3, r2
 266 0032 ECDB     		blt	.L19
 267              	.LBE2:
  91:Temp_CAN.c    ****     }
  92:Temp_CAN.c    **** 
  93:Temp_CAN.c    ****     sprintf(txData,"ID:%x %x %x\r\n",packet.id >> 10, 
 268              		.loc 1 93 0 is_stmt 1
 269 0034 03AB     		add	r3, sp, #12
 270              	.LVL38:
 271 0036 1988     		ldrh	r1, [r3]
 272 0038 8B09     		lsrs	r3, r1, #6
 273 003a 0F22     		movs	r2, #15
 274 003c 1340     		ands	r3, r2
 275 003e 8A0A     		lsrs	r2, r1, #10
 276 0040 064C     		ldr	r4, .L20
 277 0042 3F20     		movs	r0, #63
 278 0044 0140     		ands	r1, r0
 279 0046 0091     		str	r1, [sp]
 280 0048 0649     		ldr	r1, .L20+8
 281 004a 2000     		movs	r0, r4
 282 004c FFF7FEFF 		bl	sprintf
 283              	.LVL39:
  94:Temp_CAN.c    ****         (packet.id >> 6) & 0xF , packet.id & 0x3F);
  95:Temp_CAN.c    ****     Print(txData);
ARM GAS  C:\Users\casey\AppData\Local\Temp\ccvU0TBN.s 			page 8


 284              		.loc 1 95 0
 285 0050 2000     		movs	r0, r4
 286 0052 FFF7FEFF 		bl	DBG_UART_UartPutString
 287              	.LVL40:
  96:Temp_CAN.c    **** }
 288              		.loc 1 96 0
 289 0056 07B0     		add	sp, sp, #28
 290              		@ sp needed
 291 0058 30BD     		pop	{r4, r5, pc}
 292              	.L21:
 293 005a C046     		.align	2
 294              	.L20:
 295 005c 00000000 		.word	txData
 296 0060 34000000 		.word	.LC6
 297 0064 44000000 		.word	.LC9
 298              		.cfi_endproc
 299              	.LFE36:
 300              		.size	PrintCanPacket, .-PrintCanPacket
 301              		.comm	can_send,12,4
 302              		.comm	can_recieve,12,4
 303              		.section	.rodata.str1.4,"aMS",%progbits,1
 304              		.align	2
 305              	.LC1:
 306 0000 0D0A0D0A 		.ascii	"\015\012\015\012\015\012STOP\015\012\015\012\015\012"
 306      0D0A5354 
 306      4F500D0A 
 306      0D0A0D0A 
 307 0010 00       		.ascii	"\000"
 308 0011 000000   		.space	3
 309              	.LC3:
 310 0014 43616E6E 		.ascii	"Cannot Send That Data Type!\012\015\000"
 310      6F742053 
 310      656E6420 
 310      54686174 
 310      20446174 
 311 0032 0000     		.space	2
 312              	.LC6:
 313 0034 42797465 		.ascii	"Byte%d %x   \000"
 313      25642025 
 313      78202020 
 313      00
 314 0041 000000   		.space	3
 315              	.LC9:
 316 0044 49443A25 		.ascii	"ID:%x %x %x\015\012\000"
 316      78202578 
 316      2025780D 
 316      0A00
 317              		.text
 318              	.Letext0:
 319              		.file 2 "c:\\program files (x86)\\cypress\\psoc creator\\4.4\\psoc creator\\import\\gnu\\arm\\5.4.
 320              		.file 3 "c:\\program files (x86)\\cypress\\psoc creator\\4.4\\psoc creator\\import\\gnu\\arm\\5.4.
 321              		.file 4 "HindsightCAN/CANPacket.h"
 322              		.file 5 "main.h"
 323              		.file 6 "Temp_FSM.h"
 324              		.file 7 "Generated_Source\\PSoC4/DBG_UART_SPI_UART.h"
 325              		.file 8 "HindsightCAN/CANCommon.h"
 326              		.file 9 "HindsightCAN/Port.h"
ARM GAS  C:\Users\casey\AppData\Local\Temp\ccvU0TBN.s 			page 9


 327              		.file 10 "c:\\program files (x86)\\cypress\\psoc creator\\4.4\\psoc creator\\import\\gnu\\arm\\5.4