ARM GAS  C:\Users\casey\AppData\Local\Temp\ccbK4C7v.s 			page 1


   1              		.syntax unified
   2              		.cpu cortex-m0
   3              		.fpu softvfp
   4              		.eabi_attribute 20, 1
   5              		.eabi_attribute 21, 1
   6              		.eabi_attribute 23, 3
   7              		.eabi_attribute 24, 1
   8              		.eabi_attribute 25, 1
   9              		.eabi_attribute 26, 1
  10              		.eabi_attribute 30, 1
  11              		.eabi_attribute 34, 0
  12              		.eabi_attribute 18, 4
  13              		.thumb
  14              		.syntax unified
  15              		.file	"Temp_FSM.c"
  16              		.text
  17              	.Ltext0:
  18              		.cfi_sections	.debug_frame
  19              		.section	.text.GotoUninitState,"ax",%progbits
  20              		.align	2
  21              		.global	GotoUninitState
  22              		.code	16
  23              		.thumb_func
  24              		.type	GotoUninitState, %function
  25              	GotoUninitState:
  26              	.LFB34:
  27              		.file 1 "Temp_FSM.c"
   1:Temp_FSM.c    **** /* ========================================
   2:Temp_FSM.c    ****  *
   3:Temp_FSM.c    ****  * Copyright YOUR COMPANY, THE YEAR
   4:Temp_FSM.c    ****  * All Rights Reserved
   5:Temp_FSM.c    ****  * UNPUBLISHED, LICENSED SOFTWARE.
   6:Temp_FSM.c    ****  *
   7:Temp_FSM.c    ****  * CONFIDENTIAL AND PROPRIETARY INFORMATION
   8:Temp_FSM.c    ****  * WHICH IS THE PROPERTY OF your company.
   9:Temp_FSM.c    ****  *
  10:Temp_FSM.c    ****  * ========================================
  11:Temp_FSM.c    **** */
  12:Temp_FSM.c    **** 
  13:Temp_FSM.c    **** #include "Temp_FSM.h"
  14:Temp_FSM.c    **** #include "project.h"
  15:Temp_FSM.c    **** 
  16:Temp_FSM.c    **** uint8_t currentState  = UNINIT;
  17:Temp_FSM.c    **** uint8_t currentMode   = 0xFF;
  18:Temp_FSM.c    **** 
  19:Temp_FSM.c    **** void GotoUninitState() {
  28              		.loc 1 19 0
  29              		.cfi_startproc
  30              		@ args = 0, pretend = 0, frame = 0
  31              		@ frame_needed = 0, uses_anonymous_args = 0
  32              		@ link register save eliminated.
  20:Temp_FSM.c    ****     currentState = UNINIT;
  33              		.loc 1 20 0
  34 0000 FF22     		movs	r2, #255
  35 0002 014B     		ldr	r3, .L2
  36 0004 1A70     		strb	r2, [r3]
  21:Temp_FSM.c    **** }
ARM GAS  C:\Users\casey\AppData\Local\Temp\ccbK4C7v.s 			page 2


  37              		.loc 1 21 0
  38              		@ sp needed
  39 0006 7047     		bx	lr
  40              	.L3:
  41              		.align	2
  42              	.L2:
  43 0008 00000000 		.word	.LANCHOR0
  44              		.cfi_endproc
  45              	.LFE34:
  46              		.size	GotoUninitState, .-GotoUninitState
  47              		.section	.text.SetStateTo,"ax",%progbits
  48              		.align	2
  49              		.global	SetStateTo
  50              		.code	16
  51              		.thumb_func
  52              		.type	SetStateTo, %function
  53              	SetStateTo:
  54              	.LFB35:
  22:Temp_FSM.c    **** void SetStateTo(uint8_t state) {
  55              		.loc 1 22 0
  56              		.cfi_startproc
  57              		@ args = 0, pretend = 0, frame = 0
  58              		@ frame_needed = 0, uses_anonymous_args = 0
  59              		@ link register save eliminated.
  60              	.LVL0:
  23:Temp_FSM.c    ****     currentState = state;
  61              		.loc 1 23 0
  62 0000 014B     		ldr	r3, .L5
  63 0002 1870     		strb	r0, [r3]
  24:Temp_FSM.c    **** }
  64              		.loc 1 24 0
  65              		@ sp needed
  66 0004 7047     		bx	lr
  67              	.L6:
  68 0006 C046     		.align	2
  69              	.L5:
  70 0008 00000000 		.word	.LANCHOR0
  71              		.cfi_endproc
  72              	.LFE35:
  73              		.size	SetStateTo, .-SetStateTo
  74              		.section	.text.SetModeTo,"ax",%progbits
  75              		.align	2
  76              		.global	SetModeTo
  77              		.code	16
  78              		.thumb_func
  79              		.type	SetModeTo, %function
  80              	SetModeTo:
  81              	.LFB36:
  25:Temp_FSM.c    **** void SetModeTo(uint8_t mode) {
  82              		.loc 1 25 0
  83              		.cfi_startproc
  84              		@ args = 0, pretend = 0, frame = 0
  85              		@ frame_needed = 0, uses_anonymous_args = 0
  86              		@ link register save eliminated.
  87              	.LVL1:
  26:Temp_FSM.c    ****     currentMode = mode;
  88              		.loc 1 26 0
ARM GAS  C:\Users\casey\AppData\Local\Temp\ccbK4C7v.s 			page 3


  89 0000 014B     		ldr	r3, .L8
  90 0002 5870     		strb	r0, [r3, #1]
  27:Temp_FSM.c    **** }
  91              		.loc 1 27 0
  92              		@ sp needed
  93 0004 7047     		bx	lr
  94              	.L9:
  95 0006 C046     		.align	2
  96              	.L8:
  97 0008 00000000 		.word	.LANCHOR0
  98              		.cfi_endproc
  99              	.LFE36:
 100              		.size	SetModeTo, .-SetModeTo
 101              		.section	.text.GetState,"ax",%progbits
 102              		.align	2
 103              		.global	GetState
 104              		.code	16
 105              		.thumb_func
 106              		.type	GetState, %function
 107              	GetState:
 108              	.LFB37:
  28:Temp_FSM.c    **** uint8_t GetState(){
 109              		.loc 1 28 0
 110              		.cfi_startproc
 111              		@ args = 0, pretend = 0, frame = 0
 112              		@ frame_needed = 0, uses_anonymous_args = 0
 113              		@ link register save eliminated.
  29:Temp_FSM.c    ****     return currentState;
 114              		.loc 1 29 0
 115 0000 014B     		ldr	r3, .L11
 116 0002 1878     		ldrb	r0, [r3]
  30:Temp_FSM.c    **** }
 117              		.loc 1 30 0
 118              		@ sp needed
 119 0004 7047     		bx	lr
 120              	.L12:
 121 0006 C046     		.align	2
 122              	.L11:
 123 0008 00000000 		.word	.LANCHOR0
 124              		.cfi_endproc
 125              	.LFE37:
 126              		.size	GetState, .-GetState
 127              		.section	.text.GetMode,"ax",%progbits
 128              		.align	2
 129              		.global	GetMode
 130              		.code	16
 131              		.thumb_func
 132              		.type	GetMode, %function
 133              	GetMode:
 134              	.LFB38:
  31:Temp_FSM.c    **** uint8_t GetMode(){
 135              		.loc 1 31 0
 136              		.cfi_startproc
 137              		@ args = 0, pretend = 0, frame = 0
 138              		@ frame_needed = 0, uses_anonymous_args = 0
 139              		@ link register save eliminated.
  32:Temp_FSM.c    ****     return currentMode;
ARM GAS  C:\Users\casey\AppData\Local\Temp\ccbK4C7v.s 			page 4


 140              		.loc 1 32 0
 141 0000 014B     		ldr	r3, .L14
 142 0002 5878     		ldrb	r0, [r3, #1]
  33:Temp_FSM.c    **** }
 143              		.loc 1 33 0
 144              		@ sp needed
 145 0004 7047     		bx	lr
 146              	.L15:
 147 0006 C046     		.align	2
 148              	.L14:
 149 0008 00000000 		.word	.LANCHOR0
 150              		.cfi_endproc
 151              	.LFE38:
 152              		.size	GetMode, .-GetMode
 153              		.global	currentMode
 154              		.global	currentState
 155              		.data
 156              		.set	.LANCHOR0,. + 0
 157              		.type	currentState, %object
 158              		.size	currentState, 1
 159              	currentState:
 160 0000 FF       		.byte	-1
 161              		.type	currentMode, %object
 162              		.size	currentMode, 1
 163              	currentMode:
 164 0001 FF       		.byte	-1
 165              		.text
 166              	.Letext0:
 167              		.file 2 "c:\\program files (x86)\\cypress\\psoc creator\\4.4\\psoc creator\\import\\gnu\\arm\\5.4.
 168              		.file 3 "c:\\program files (x86)\\cypress\\psoc creator\\4.4\\psoc creator\\import\\gnu\\arm\\5.4.